((dp0
S'arm_dbg_args'
p1
S'-via:"c:\\Users\\Ahmed Saleh\\Documents\\spaceinvader\\build_spaceinvader_vc12\\spaceinvader_vc12_arm_debug.via" -qemu'
p2
sS'game-icf'
p3
S''
p4
sS'dist'
p5
NsS'csproj'
p6
g4
sS'module_path_append'
p7
NsS'global_path'
p8
S'c:\\users\\ahmed saleh\\documents'
p9
sS'system_path'
p10
S'c:\\marmalade\\7.4\\s3e\\makefile_builder'
p11
sS'android_x86_dbg_args'
p12
S'../../tools/DeployTool/DeployTool.exe --dir "c:\\Users\\Ahmed Saleh\\Documents\\spaceinvader\\build_spaceinvader_vc12"'
p13
sS'no-emit'
p14
NsS'arm-float-abi'
p15
g4
sS'arm_rel_rtsm_args'
p16
S'-via:"c:\\Users\\Ahmed Saleh\\Documents\\spaceinvader\\build_spaceinvader_vc12\\spaceinvader_vc12_arm_release.via" -qemu'
p17
sS'amd64'
p18
NsS'line-width'
p19
I80
sS'gcc_dbg_args'
p20
S'-via:"c:\\Users\\Ahmed Saleh\\Documents\\spaceinvader\\build_spaceinvader_vc12\\spaceinvader_vc12_gcc_debug.via" -qemu'
p21
sS'android-x86'
p22
NsS'x86_dbg_exe'
p23
S'c:/marmalade/7.4/s3e\\win32\\s3e_simulator_debug.exe'
p24
sS'disable-runtime-checks'
p25
NsS'release'
p26
NsS'no-make'
p27
NsS'xcode-x86-build-settings'
p28
g4
sS'optimise-size'
p29
NsS'output-name-debug'
p30
g4
sS'arm-fpu'
p31
g4
sS'proj_name'
p32
S'spaceinvader_vc12'
p33
sS'rvct-version'
p34
S'none'
p35
sS'compiler'
p36
g4
sS'execute'
p37
NsS'compile-static'
p38
NsS'msvc-project'
p39
NsS'buildenv'
p40
g4
sS'quick'
p41
NsS'module_path'
p42
NsS'mkf_default'
p43
S's3e-default.mkf'
p44
sS'use-release-std-libs'
p45
NsS'using_perforce'
p46
I00
sS'tizen-x86'
p47
NsS'mips-s3e'
p48
NsS's3e-api-lib-name'
p49
S's3e_api_iwgl'
p50
sS'ios-no-pic'
p51
NsS'shared-arm-lib'
p52
NsS'arm-cpu'
p53
g4
sS'compile-thumb'
p54
NsS'no-ide'
p55
NsS'msvc-version'
p56
S'6.0'
p57
sS'arm'
p58
NsS'builddir'
p59
g4
sS'compile-debug-as-release'
p60
I0
sS'arm-arch'
p61
g4
sS'brief'
p62
NsS'dll'
p63
NsS'buildenv-toolset'
p64
g4
sS'version'
p65
NsS'ccache'
p66
I0
sS'offline'
p67
NsS'ios-version'
p68
g4
sS'hub_data'
p69
g4
sS'fake_vc_call'
p70
NsS'jobs'
p71
I0
sS'linkflags'
p72
NsS'debug'
p73
NsS'xcode-build-order'
p74
g4
sS'gcc_rel_rtsm_args'
p75
S'-via:"c:\\Users\\Ahmed Saleh\\Documents\\spaceinvader\\build_spaceinvader_vc12\\spaceinvader_vc12_gcc_release.via" -qemu'
p76
sS'done_defaults'
p77
I1
sS'path'
p78
NsS's3e-data-dir'
p79
S'c:/Users/Ahmed Saleh/Documents/spaceinvader\\data'
p80
sS'enable-exceptions'
p81
NsS'osx-dll'
p82
NsS'extension'
p83
g4
sS'no-vc6'
p84
NsS'non-interactive'
p85
NsS'win32-console'
p86
NsS'dist-format'
p87
g4
sS's3e-force-arch'
p88
NsS'dump_defines'
p89
NsS'use-shared-std-libs'
p90
NsS'gcc-version'
p91
g4
sS'x86_dbg_args'
p92
S'-via:"c:\\Users\\Ahmed Saleh\\Documents\\spaceinvader\\build_spaceinvader_vc12\\spaceinvader_vc12_debug.via"'
p93
sS'tizen_x86_dbg_args'
p94
g13
sS'arm-debugger'
p95
g4
sS'use_temp_extension'
p96
NsS'verbose'
p97
I0
sS'log'
p98
NsS'no-strip'
p99
NsS'rebuild'
p100
NsS'win32-simulator-dll'
p101
NsS'strict'
p102
NsS'mips_dbg_args'
p103
g13
sS'enable-global-path'
p104
NsS'cflags'
p105
NsS'dist-dir'
p106
g4
sS'xcode-arm-build-settings'
p107
g4
sS'jflags'
p108
NsS'csprojSDKRefs'
p109
g4
sS'tizen_x86_rel_exe'
p110
S'c:\\marmalade\\7.4\\s3e\\makefile_builder\\tool_launcher.exe'
p111
sS'test-assets'
p112
g4
sS'distcc'
p113
NsS'external-compiler'
p114
NsS'no-distcc'
p115
NsS'preinclude'
p116
NsS'using_sdk'
p117
I01
sS'nologo'
p118
NsS'warn-level'
p119
I2
sS'mips_dbg_exe'
p120
g111
sS'mkb_in'
p121
S'c:/Users/Ahmed Saleh/Documents/spaceinvader/spaceinvader.mkb'
p122
sS'tizen_x86_dbg_exe'
p123
g111
sS'arm_dbg_exe'
p124
S'c:/marmalade/7.4/s3e\\bin\\armdebug.exe'
p125
sS'csprojDLLRef'
p126
NsS'tizen_x86_rel_args'
p127
g13
sS'android_x86_dbg_exe'
p128
g111
sS'test-config'
p129
g4
sS'list-targets'
p130
NsS'arm_rel_exe'
p131
g111
sS'arm_rel_args'
p132
g13
sS'makedeps'
p133
NsS'android_x86_rel_exe'
p134
g111
sS'default-buildenv'
p135
S'VC12'
p136
sS'x86_rel_exe'
p137
g24
sS'preprocess-java'
p138
NsS'mips_rel_args'
p139
g13
sS'defines'
p140
NsS'lib'
p141
NsS'global_argv'
p142
(lp143
S'C:\\Marmalade\\7.4\\s3e\\makefile_builder\\mkb.py'
p144
aS'C:\\Users\\Ahmed Saleh\\Documents\\spaceinvader\\spaceinvader.mkb'
p145
asS'make'
p146
NsS'optimise-speed'
p147
NsS'internal'
p148
NsS'enable-stdinc'
p149
NsS'deploy-only'
p150
NsS'x86'
p151
NsS'deploy'
p152
g4
sS'x86_run_exe'
p153
S'c:/marmalade/7.4/s3e\\win32\\s3e_console.exe'
p154
sS'x86_rel_args'
p155
S'-via:"c:\\Users\\Ahmed Saleh\\Documents\\spaceinvader\\build_spaceinvader_vc12\\spaceinvader_vc12_release.via"'
p156
sS'gcc_rel_args'
p157
g13
sS'mips'
p158
NsS'xcode-build-settings'
p159
g4
sS'incredibuild'
p160
NsS'strict-compile'
p161
NsS'use-auto-subdirs'
p162
NsS'mips_rel_exe'
p163
g111
sS'android_x86_rel_args'
p164
g13
sS'app-icf'
p165
g4
sS'deployargs'
p166
NsS'iosnativedebug'
p167
NsS'use_prebuilt'
p168
NsS'mkf_in'
p169
(lp170
S'c:\\marmalade\\7.4\\s3e\\s3e-default.mkf'
p171
aS'c:\\marmalade\\7.4\\modules\\iwutil\\iwutil.mkf'
p172
aS'c:\\marmalade\\7.4\\modules\\third_party\\libjpeg\\libjpeg.mkf'
p173
aS'c:\\marmalade\\7.4\\modules\\third_party\\libpng\\libpng.mkf'
p174
aS'c:\\marmalade\\7.4\\modules\\third_party\\zlib\\zlib.mkf'
p175
aS'c:\\marmalade\\7.4\\modules\\iw2dscenegraphcore\\iw2dscenegraphcore.mkf'
p176
aS'c:\\marmalade\\7.4\\modules\\iw2dscenegraph\\iw2dscenegraph.mkf'
p177
aS'c:\\marmalade\\7.4\\modules\\iw2d\\iw2d.mkf'
p178
aS'c:\\marmalade\\7.4\\modules\\iwgx\\iwgx.mkf'
p179
aS'c:\\marmalade\\7.4\\modules\\iwgl\\iwgl.mkf'
p180
aS'c:\\marmalade\\7.4\\modules\\iwgeom\\iwgeom.mkf'
p181
aS'c:\\marmalade\\7.4\\modules\\iwresmanager\\iwresmanager.mkf'
p182
aS'c:\\marmalade\\7.4\\extensions\\pvrtextool\\pvrtextool.mkf'
p183
aS'c:\\marmalade\\7.4\\modules\\iwgxfont\\iwgxfont.mkf'
p184
aS'c:\\marmalade\\7.4\\modules\\third_party\\tiniconv\\tiniconv.mkf'
p185
aS'c:\\marmalade\\7.4\\modules\\iwtween\\iwtween.mkf'
p186
asS'strict-mkb'
p187
NsS'executeargs'
p188
NsS'clean'
p189
NsS'no-asm'
p190
NsS'output-name'
p191
g4
sS'no-modules'
p192
NsS'find_define'
p193
g4
s(dp194
S'c:\\marmalade\\7.4\\s3e\\makefile_builder\\plugins\\Emitter.pyc'
p195
F1418621496.0
sS'c:\\marmalade\\7.4\\s3e\\makefile_builder\\templates\\ws8_ext_sln.pyc'
p196
F1418621498.0
sS'c:\\marmalade\\7.4\\s3e\\makefile_builder\\templates\\MainWindow.xib'
p197
F1418620376.0
sS'c:\\marmalade\\7.4\\s3e\\makefile_builder\\templates\\template.suo'
p198
F1418620376.0
sS'c:\\marmalade\\7.4\\s3e\\makefile_builder\\plugins\\xcode4_schememanagement.py'
p199
F1418620376.0
sS'c:\\marmalade\\7.4\\s3e\\makefile_builder\\templates\\ws81_sln.pyc'
p200
F1418621498.0
sS'c:\\marmalade\\7.4\\s3e\\makefile_builder\\templates\\win8_ext_csproj.pyc'
p201
F1418621498.0
sS'c:\\marmalade\\7.4\\s3e\\makefile_builder\\mkb_option.pyc'
p202
F1418621496.0
sS'c:\\marmalade\\7.4\\s3e\\makefile_builder\\plugins\\s3e_xcode.py'
p203
F1418620376.0
sS'c:\\marmalade\\7.4\\s3e\\makefile_builder\\plugins\\s3e_scons.pyc'
p204
F1418621496.0
sS'c:\\marmalade\\7.4\\s3e\\makefile_builder\\templates\\win8_vcxproj.pyc'
p205
F1418621498.0
sS'c:\\marmalade\\7.4\\s3e\\makefile_builder\\plugins\\null.pyc'
p206
F1418621496.0
sS'c:\\marmalade\\7.4\\s3e\\makefile_builder\\templates\\vc8_user.pyc'
p207
F1418621498.0
sS'c:\\marmalade\\7.4\\s3e\\makefile_builder\\templates\\wp81_ext_sln.pyc'
p208
F1418621498.0
sS'c:\\marmalade\\7.4\\s3e\\makefile_builder\\templates\\scons.pyc'
p209
F1418621498.0
sS'c:\\marmalade\\7.4\\s3e\\makefile_builder\\templates\\wp8_ext_csproj.pyc'
p210
F1418621498.0
sS'c:\\marmalade\\7.4\\s3e\\makefile_builder\\templates\\xcode_pbxuser.py'
p211
F1418620376.0
sS'c:\\marmalade\\7.4\\s3e\\makefile_builder\\plugins\\s3e_qmake.py'
p212
F1418620376.0
sS'c:\\marmalade\\7.4\\s3e\\makefile_builder\\plugins\\iphone.pyc'
p213
F1418621496.0
sS'c:\\marmalade\\7.4\\s3e\\makefile_builder\\templates\\ws81_ext_csproj.pyc'
p214
F1418621498.0
sS'c:\\marmalade\\7.4\\s3e\\makefile_builder\\templates\\vc6_opt.pyc'
p215
F1418621498.0
sS'c:\\marmalade\\7.4\\s3e\\makefile_builder\\plugins\\s3e_win8.pyc'
p216
F1418621496.0
sS'c:\\marmalade\\7.4\\s3e\\makefile_builder\\mkb_main.pyc'
p217
F1418621496.0
sS'c:\\marmalade\\7.4\\s3e\\makefile_builder\\templates\\wp8_csproj.pyc'
p218
F1418621498.0
sS'c:\\marmalade\\7.4\\s3e\\makefile_builder\\templates\\win32_vcproj.pyc'
p219
F1418621498.0
sS'c:\\marmalade\\7.4\\s3e\\makefile_builder\\templates\\win8_sln.pyc'
p220
F1418621498.0
sS'c:\\marmalade\\7.4\\s3e\\makefile_builder\\mkb_launcher.exe'
p221
F1418620632.0
sS'c:\\marmalade\\7.4\\s3e\\makefile_builder\\plugins\\osx_xcode.pyc'
p222
F1418621496.0
sS'c:\\marmalade\\7.4\\s3e\\makefile_builder\\plugins'
p223
F1418838610.1913178
sS'c:\\marmalade\\7.4\\s3e\\makefile_builder\\templates\\wp8_csproj_user.pyc'
p224
F1418621498.0
sS'c:\\marmalade\\7.4\\s3e\\makefile_builder\\plugins\\win32_vc6.pyc'
p225
F1418621496.0
sS'c:\\marmalade\\7.4\\s3e\\makefile_builder\\plugins\\s3e_vc6.pyc'
p226
F1418621496.0
sS'c:\\marmalade\\7.4\\s3e\\makefile_builder\\templates\\vc10_user.pyc'
p227
F1418621498.0
sS'c:\\marmalade\\7.4\\s3e\\makefile_builder\\docs\\deprecated.defines.txt'
p228
F1418620376.0
sS'c:\\marmalade\\7.4\\s3e\\makefile_builder\\templates\\wp81_csproj_user.pyc'
p229
F1418621498.0
sS'c:\\marmalade\\7.4\\s3e\\makefile_builder\\templates\\ws81_ext_sln.pyc'
p230
F1418621498.0
sS'c:\\marmalade\\7.4\\s3e\\makefile_builder\\templates\\make.py'
p231
F1418620376.0
sS'c:\\marmalade\\7.4\\s3e\\makefile_builder\\plugins\\wp81_wp81.pyc'
p232
F1418621496.0
sS'c:\\marmalade\\7.4\\s3e\\makefile_builder\\plugins\\s3e_qmake.pyc'
p233
F1418838610.1183136
sS'c:\\marmalade\\7.4\\s3e\\makefile_builder\\templates\\mips_linker_script'
p234
F1418620376.0
sS'c:\\marmalade\\7.4\\s3e\\makefile_builder\\plugins\\deploy.pyc'
p235
F1418621496.0
sS'c:\\marmalade\\7.4\\s3e\\makefile_builder\\plugins\\ws81_ws81.pyc'
p236
F1418621496.0
sS'c:\\marmalade\\7.4\\s3e\\makefile_builder\\mkb.py'
p237
F1418620376.0
sS'c:\\marmalade\\7.4\\s3e\\makefile_builder\\docs\\options.txt'
p238
F1418620376.0
sS'c:\\marmalade\\7.4\\s3e\\makefile_builder\\mkb_parser.pyc'
p239
F1418621496.0
sS'c:\\marmalade\\7.4\\s3e\\makefile_builder\\templates\\qmake_user.py'
p240
F1418620376.0
sS'c:\\marmalade\\7.4\\s3e\\makefile_builder\\docs\\mkb.defines.txt'
p241
F1418620376.0
sS'c:\\marmalade\\7.4\\s3e\\makefile_builder\\deployment.pyc'
p242
F1418621496.0
sS'c:\\marmalade\\7.4\\s3e\\makefile_builder\\plugins\\wp8_wp8.pyc'
p243
F1418621496.0
sS'c:\\marmalade\\7.4\\s3e\\makefile_builder\\plugins\\linux_scons.pyc'
p244
F1418621496.0
sS'c:\\marmalade\\7.4\\s3e\\makefile_builder\\plugins\\s3e_web.pyc'
p245
F1418621496.0
sS'c:\\marmalade\\7.4\\s3e\\makefile_builder\\plugins\\S3EEmitter.pyc'
p246
F1418621496.0
sS'c:\\marmalade\\7.4\\s3e\\makefile_builder\\plugins\\Win8Emitter.pyc'
p247
F1418621496.0
sS'c:\\marmalade\\7.4\\s3e\\makefile_builder\\templates\\xcode4_arm.xcscheme'
p248
F1418620376.0
sS'c:\\marmalade\\7.4\\s3e\\makefile_builder\\plugins\\vc6_utils.pyc'
p249
F1418621496.0
sS'c:\\marmalade\\7.4\\s3e\\makefile_builder\\templates\\wp8_vcxproj.pyc'
p250
F1418621498.0
sS'c:\\marmalade\\7.4\\s3e\\makefile_builder\\templates\\xcode4.xcscheme'
p251
F1418620376.0
sS'c:\\marmalade\\7.4\\s3e\\makefile_builder\\plugins\\MakeEmitter.pyc'
p252
F1418621496.0
sS'c:\\marmalade\\7.4\\s3e\\makefile_builder\\plugins\\java.pyc'
p253
F1418621496.0
sS'c:\\marmalade\\7.4\\s3e\\makefile_builder\\plugins\\XcodeEmitter.pyc'
p254
F1418838609.864299
sS'c:\\marmalade\\7.4\\s3e\\makefile_builder\\plugins\\XcodeEmitter.py'
p255
F1418620376.0
sS'c:\\marmalade\\7.4\\s3e\\makefile_builder\\mkb_globals.pyc'
p256
F1418621496.0
sS'c:\\marmalade\\7.4\\s3e\\makefile_builder\\tool_launcher.exe'
p257
F1418620632.0
sS'c:\\marmalade\\7.4\\s3e\\makefile_builder\\mkb_util.pyc'
p258
F1418621496.0
sS'c:\\marmalade\\7.4\\s3e\\makefile_builder\\plugins\\xcode4_schememanagement.pyc'
p259
F1418838609.9073014
sS'c:\\marmalade\\7.4\\s3e\\makefile_builder\\templates\\ws8_sln.pyc'
p260
F1418621498.0
sS'c:\\marmalade\\7.4\\s3e\\makefile_builder\\templates\\win32_sln.pyc'
p261
F1418621498.0
sS'c:\\marmalade\\7.4\\s3e\\makefile_builder\\templates\\wp81_ext_csproj.pyc'
p262
F1418621498.0
sS'c:\\marmalade\\7.4\\s3e\\makefile_builder\\plugins\\s3e_wp81.pyc'
p263
F1418621496.0
sS'c:\\marmalade\\7.4\\s3e\\makefile_builder\\plugins\\s3e_wp8.pyc'
p264
F1418621496.0
sS'c:\\marmalade\\7.4\\s3e\\makefile_builder\\templates\\qmake.py'
p265
F1418620376.0
sS'c:\\marmalade\\7.4\\s3e\\makefile_builder\\templates\\gdb_start.txt'
p266
F1418620376.0
sS'c:\\marmalade\\7.4\\s3e\\makefile_builder\\templates'
p267
F1418838415.8697603
sS'c:\\marmalade\\7.4\\s3e\\makefile_builder\\templates\\ws8_ext_csproj.pyc'
p268
F1418621498.0
sS'c:\\marmalade\\7.4\\s3e\\makefile_builder\\templates\\win8_csproj_user.pyc'
p269
F1418621498.0
sS'c:\\marmalade\\7.4\\s3e\\makefile_builder\\templates\\vc7_suo.pyc'
p270
F1418621498.0
sS'c:\\marmalade\\7.4\\s3e\\makefile_builder\\plugins\\VisualStudioEmitter.pyc'
p271
F1418621496.0
sS'c:\\marmalade\\7.4\\s3e\\makefile_builder\\templates\\linker_script'
p272
F1418620376.0
sS'c:\\marmalade\\7.4\\s3e\\makefile_builder\\docs\\deprecated.options.txt'
p273
F1418620376.0
sS'c:\\marmalade\\7.4\\s3e\\makefile_builder\\plugins\\s3e_xcode.pyc'
p274
F1418838610.1913178
sS'c:\\marmalade\\7.4\\s3e\\makefile_builder\\plugins\\s3e_ws8.pyc'
p275
F1418621496.0
sS'c:\\marmalade\\7.4\\s3e\\makefile_builder\\templates\\xcode4_DeployTool.xcscheme'
p276
F1418620376.0
sS'c:\\marmalade\\7.4\\s3e\\makefile_builder\\templates\\ws8_csproj_user.pyc'
p277
F1418621498.0
sS'c:\\marmalade\\7.4\\s3e\\makefile_builder\\plugins\\osx_scons.pyc'
p278
F1418621496.0
sS'c:\\marmalade\\7.4\\s3e\\makefile_builder\\templates\\ws81_csproj.pyc'
p279
F1418621498.0
sS'c:\\marmalade\\7.4\\s3e\\makefile_builder\\templates\\wp8_sln.pyc'
p280
F1418621498.0
sS'c:\\marmalade\\7.4\\s3e\\makefile_builder\\docs'
p281
F1418838415.881761
sS'c:\\marmalade\\7.4\\s3e\\makefile_builder\\plugins\\ws8_ws8.pyc'
p282
F1418621496.0
sS'c:\\marmalade\\7.4\\s3e\\makefile_builder\\docs\\deployment_options.txt'
p283
F1418620376.0
sS'c:\\marmalade\\7.4\\s3e\\makefile_builder\\templates\\win32_vcxproj_filters.pyc'
p284
F1418621498.0
sS'c:\\marmalade\\7.4\\s3e\\makefile_builder\\templates\\win32_dsw.pyc'
p285
F1418621498.0
sS'c:\\marmalade\\7.4\\s3e\\makefile_builder\\plugins\\s3e_ws81.pyc'
p286
F1418621496.0
sS'c:\\marmalade\\7.4\\s3e\\makefile_builder\\plugins\\SConsEmitter.pyc'
p287
F1418621496.0
sS'c:\\marmalade\\7.4\\s3e\\makefile_builder\\templates\\wp81_vcxproj.pyc'
p288
F1418621498.0
sS'c:\\marmalade\\7.4\\s3e\\makefile_builder\\plugins\\win8_utils.pyc'
p289
F1418621496.0
sS'c:\\marmalade\\7.4\\s3e\\makefile_builder\\templates\\template.opt'
p290
F1418620376.0
sS'c:\\marmalade\\7.4\\s3e\\makefile_builder\\plugins\\vc7_utils.pyc'
p291
F1418621496.0
sS'c:\\marmalade\\7.4\\s3e\\makefile_builder\\templates\\win32_dsp.pyc'
p292
F1418621498.0
sS'c:\\marmalade\\7.4\\s3e\\makefile_builder\\plugins\\s3e_make.pyc'
p293
F1418621496.0
sS'c:\\marmalade\\7.4\\s3e\\makefile_builder\\templates\\rvct_linker_script'
p294
F1418620376.0
sS'c:\\marmalade\\7.4\\s3e\\makefile_builder\\templates\\win8_csproj.pyc'
p295
F1418621498.0
sS'c:\\marmalade\\7.4\\s3e\\makefile_builder\\templates\\xcode.py'
p296
F1418620376.0
sS'c:\\marmalade\\7.4\\s3e\\makefile_builder\\templates\\ws8_vcxproj.pyc'
p297
F1418621498.0
sS'c:\\marmalade\\7.4\\s3e\\makefile_builder\\templates\\wp81_csproj.pyc'
p298
F1418621498.0
sS'c:\\marmalade\\7.4\\s3e\\makefile_builder\\mkb_upstream.pyc'
p299
F1418621496.0
sS'c:\\marmalade\\7.4\\s3e\\makefile_builder\\templates\\win32_vcxproj.pyc'
p300
F1418621498.0
sS'c:\\marmalade\\7.4\\s3e\\makefile_builder\\templates\\ws8_csproj.pyc'
p301
F1418621498.0
sS'c:\\marmalade\\7.4\\s3e\\makefile_builder\\docs\\parse_options.pyc'
p302
F1418621498.0
sS'c:\\marmalade\\7.4\\s3e\\makefile_builder\\templates\\Info.plist'
p303
F1418620376.0
sS'c:\\marmalade\\7.4\\s3e\\makefile_builder\\templates\\wp81_sln.pyc'
p304
F1418621498.0
sS'c:\\marmalade\\7.4\\s3e\\makefile_builder\\templates\\ws81_csproj_user.pyc'
p305
F1418621498.0
sS'c:\\marmalade\\7.4\\s3e\\makefile_builder\\templates\\ws81_vcxproj.pyc'
p306
F1418621498.0
sccopy_reg
_reconstructor
p307
(cmkb_main
MkbFile
p308
c__builtin__
object
p309
Ntp310
Rp311
(dp312
g5
(lp313
sS'target_name'
p314
S'spaceinvader'
p315
sS'current_file'
p316
g122
sS'package_path'
p317
(lp318
sS'post_build'
p319
(lp320
(lp321
S'c:/marmalade/7.4/s3e/tools'
p322
aS'C:\\Marmalade\\7.4\\s3e\\python\\python.exe .\\process_map.py "$(TargetPath)"'
p323
aa(S'c:\\marmalade\\7.4\\s3e\\bin'
p324
S'"s3e_plink" -l "$(TargetPath)" '
p325
g151
tp326
asS'librarys'
p327
(lp328
g307
(cmkb_main
Library
p329
g309
Ntp330
Rp331
(dp332
S'name'
p333
S'vc6_compat.lib'
p334
sS'expand_name'
p335
I00
sS'include_spec_rvct_objs'
p336
(lp337
sS'include_all_objs'
p338
I00
sS'share_arm'
p339
I00
sS'arch'
p340
S'x86'
p341
sS'nodebug'
p342
I00
sg36
Nsbag307
(g329
g309
Ntp343
Rp344
(dp345
g333
S'iwutil'
p346
sg335
I01
sg336
(lp347
sg338
Nsg339
Nsg340
Nsg342
I00
sg36
Nsbag307
(g329
g309
Ntp348
Rp349
(dp350
g333
S'jpeg'
p351
sg335
I01
sg336
g347
sg338
Nsg339
Nsg340
Nsg342
I00
sg36
Nsbag307
(g329
g309
Ntp352
Rp353
(dp354
g333
S'z'
p355
sg335
I01
sg336
g347
sg338
Nsg339
Nsg340
Nsg342
I00
sg36
Nsbag307
(g329
g309
Ntp356
Rp357
(dp358
g333
S'png'
p359
sg335
I01
sg336
g347
sg338
Nsg339
Nsg340
Nsg342
I00
sg36
Nsbag307
(g329
g309
Ntp360
Rp361
(dp362
g333
S'iw2d'
p363
sg335
I01
sg336
g347
sg338
Nsg339
Nsg340
Nsg342
I00
sg36
Nsbag307
(g329
g309
Ntp364
Rp365
(dp366
g333
S'ATI_Compress_MT_VC7.lib'
p367
sg335
I00
sg336
g347
sg338
Nsg339
Nsg340
S'x86'
p368
sg342
I00
sg36
Nsbag307
(g329
g309
Ntp369
Rp370
(dp371
g333
S'iwgx'
p372
sg335
I01
sg336
g347
sg338
Nsg339
Nsg340
Nsg342
I00
sg36
Nsbag307
(g329
g309
Ntp373
Rp374
(dp375
g333
S'iwgl'
p376
sg335
I01
sg336
g347
sg338
Nsg339
Nsg340
Nsg342
I00
sg36
Nsbag307
(g329
g309
Ntp377
Rp378
(dp379
g333
S'iwgeom'
p380
sg335
I01
sg336
g347
sg338
Nsg339
Nsg340
Nsg342
I00
sg36
Nsbag307
(g329
g309
Ntp381
Rp382
(dp383
g333
S'iwresmanager'
p384
sg335
I01
sg336
g347
sg338
Nsg339
Nsg340
Nsg342
I00
sg36
Nsbag307
(g329
g309
Ntp385
Rp386
(dp387
g333
S'iwgxfont'
p388
sg335
I01
sg336
g347
sg338
Nsg339
Nsg340
Nsg342
I00
sg36
Nsbag307
(g329
g309
Ntp389
Rp390
(dp391
g333
S'tiniconv'
p392
sg335
I01
sg336
g347
sg338
Nsg339
Nsg340
Nsg342
I00
sg36
Nsbag307
(g329
g309
Ntp393
Rp394
(dp395
g333
S's3e_cpp'
p396
sg335
I01
sg336
g337
sg338
I00
sg339
I00
sg340
Nsg342
I00
sg36
Nsbag307
(g329
g309
Ntp397
Rp398
(dp399
g333
S's3e'
p400
sg335
I01
sg336
(lp401
S'iwcrt.o'
p402
asg338
I00
sg339
I00
sg340
Nsg342
I00
sg36
Nsbag307
(g329
g309
Ntp403
Rp404
(dp405
g333
g50
sg335
I01
sg336
g337
sg338
I00
sg339
I00
sg340
S'x86'
p406
sg342
I01
sg36
Nsbag307
(g329
g309
Ntp407
Rp408
(dp409
g333
g50
sg335
I01
sg336
g337
sg338
I00
sg339
I00
sg340
S'!x86'
p410
sg342
I01
sg36
Nsbag307
(g329
g309
Ntp411
Rp412
(dp413
g333
S'stdc++'
p414
sg335
I00
sg336
g337
sg338
I00
sg339
I00
sg340
S'mips'
p415
sg342
I00
sg36
Nsbag307
(g329
g309
Ntp416
Rp417
(dp418
g333
S'c'
p419
sg335
I00
sg336
g337
sg338
I00
sg339
I00
sg340
S'mips'
p420
sg342
I00
sg36
Nsbag307
(g329
g309
Ntp421
Rp422
(dp423
g333
S'm'
p424
sg335
I00
sg336
g337
sg338
I00
sg339
I00
sg340
S'mips'
p425
sg342
I00
sg36
Nsbag307
(g329
g309
Ntp426
Rp427
(dp428
g333
S'gcc'
p429
sg335
I00
sg336
g337
sg338
I00
sg339
I00
sg340
S'mips'
p430
sg342
I00
sg36
Nsbag307
(g329
g309
Ntp431
Rp432
(dp433
g333
S'stdc++'
p434
sg335
I00
sg336
g337
sg338
I00
sg339
I00
sg340
S'gcc_x86_android'
p435
sg342
I00
sg36
Nsbag307
(g329
g309
Ntp436
Rp437
(dp438
g333
g419
sg335
I00
sg336
g337
sg338
I00
sg339
I00
sg340
S'gcc_x86_android'
p439
sg342
I00
sg36
Nsbag307
(g329
g309
Ntp440
Rp441
(dp442
g333
g424
sg335
I00
sg336
g337
sg338
I00
sg339
I00
sg340
S'gcc_x86_android'
p443
sg342
I00
sg36
Nsbag307
(g329
g309
Ntp444
Rp445
(dp446
g333
g429
sg335
I00
sg336
g337
sg338
I00
sg339
I00
sg340
S'gcc_x86_android'
p447
sg342
I00
sg36
NsbasS'library_paths'
p448
(lp449
g307
(cmkb_main
LibraryPath
p450
g309
Ntp451
Rp452
(dp453
S'expand_path'
p454
I01
sg333
S'c:/marmalade/7.4/modules/iwutil'
p455
sbag307
(g450
g309
Ntp456
Rp457
(dp458
g454
I01
sg333
S'c:/marmalade/7.4/modules/third_party/libjpeg'
p459
sbag307
(g450
g309
Ntp460
Rp461
(dp462
g454
I01
sg333
S'c:/marmalade/7.4/modules/third_party/zlib'
p463
sbag307
(g450
g309
Ntp464
Rp465
(dp466
g454
I01
sg333
S'c:/marmalade/7.4/modules/third_party/libpng'
p467
sbag307
(g450
g309
Ntp468
Rp469
(dp470
g454
I01
sg333
S'c:/marmalade/7.4/modules/iw2d'
p471
sbag307
(g450
g309
Ntp472
Rp473
(dp474
g454
I00
sg333
S'c:/marmalade/7.4/modules/iwgx/atitools'
p475
sbag307
(g450
g309
Ntp476
Rp477
(dp478
g454
I01
sg333
S'c:/marmalade/7.4/modules/iwgx'
p479
sbag307
(g450
g309
Ntp480
Rp481
(dp482
g454
I01
sg333
S'c:/marmalade/7.4/modules/iwgl'
p483
sbag307
(g450
g309
Ntp484
Rp485
(dp486
g454
I01
sg333
S'c:/marmalade/7.4/modules/iwgeom'
p487
sbag307
(g450
g309
Ntp488
Rp489
(dp490
g454
I01
sg333
S'c:/marmalade/7.4/modules/iwresmanager'
p491
sbag307
(g450
g309
Ntp492
Rp493
(dp494
g454
I01
sg333
S'c:/marmalade/7.4/modules/iwgxfont'
p495
sbag307
(g450
g309
Ntp496
Rp497
(dp498
g454
I01
sg333
S'c:/marmalade/7.4/modules/third_party/tiniconv'
p499
sbag307
(g450
g309
Ntp500
Rp501
(dp502
g454
I01
sg333
S'c:/marmalade/7.4/s3e'
p503
sbasS'macros'
p504
(dp505
S'IW_USE_CALLSTACK'
p506
NsS'IW_MKF_IWGEOM'
p507
NsS'I3D_PLATFORM_S3E'
p508
NsS'IW_MKF_IW2DSCENEGRAPHCORE'
p509
NsS'IW_MKF_LIBJPEG'
p510
NsS'I3D_OS_S3E'
p511
NsS'IW_MKF_PVRTEXTOOL'
p512
NsS'IW_MKF_TINICONV'
p513
NsS'IW_APP_VERSION'
p514
S'"1.0"'
p515
sS'__S3E__'
p516
NsS'IW_MKF_IWRESMANAGER'
p517
NsS'IW_MKF_IWUTIL'
p518
NsS'IW_PLATFORM_S3E'
p519
NsS'IW_ASSERTION_CHANNEL_2D'
p520
S'1'
p521
sS'IW_APP_NAME'
p522
S'"spaceinvader"'
p523
sS'IW_MKF_S3E_DEFAULT'
p524
NsS'IW_MKF_IWGXFONT'
p525
NsS'IW_MKF_IWTWEEN'
p526
NsS'IW_MKF_ZLIB'
p527
NsS'IW_MKF_IWGX'
p528
NsS'IW_MKF_IW2DSCENEGRAPH'
p529
NsS'IW_USE_ASSERTIONS'
p530
NsS'_CRT_SECURE_NO_DEPRECATE'
p531
NsS'IW_MKF_IWGL'
p532
NsS'IW_MKF_LIBPNG'
p533
NsS'IW_TRACE_CHANNEL_IW_2DSCENEGRAPH'
p534
g521
sS'IW_DEBUG'
p535
NsS'IW_USE_TRACING'
p536
NsS'IW_ASSERTION_CHANNEL_IW_2DSCENEGRAPH'
p537
g521
sS'IW_TRACE_CHANNEL_PVRTEXTOOL'
p538
g521
sS'IW_SDK'
p539
NsS'S3E_INCLUDE_LEGACY'
p540
NsS'IW_TRACE_CHANNEL_PVRTEXTOOL_VERBOSE'
p541
S'2'
p542
sS'IW_MKF_IW2D'
p543
NsS'IW_ASSERTION_CHANNEL_PVRTEXTOOL'
p544
g521
ssS'done_warnings'
p545
(dp546
sS'subprojects'
p547
(dp548
g175
S'zlib'
p549
sg171
S's3e-default.mkf'
p550
sg173
S'libjpeg'
p551
sg176
S'iw2dscenegraphcore'
p552
sg179
S'iwgx'
p553
sg181
S'iwgeom'
p554
sg172
S'iwutil'
p555
sg177
S'iw2dscenegraph'
p556
sg185
S'tiniconv'
p557
sg180
S'iwgl'
p558
sg178
S'iw2d'
p559
sg184
S'iwgxfont'
p560
sg182
S'iwresmanager'
p561
sg174
S'libpng'
p562
sg186
S'iwtween'
p563
sg183
S'PVRTexTool'
p564
ssS'deployments'
p565
(dp566
S'Default'
p567
g307
(cdeployment
Deployment
p568
g309
Ntp569
Rp570
(dp571
S'got_version'
p572
I0
sS'assets'
p573
g567
sS'mkb'
p574
g311
sS'target'
p575
Nsg340
(lp576
sS'options'
p577
(dp578
S'iphone-link-lib'
p579
(lp580
sS'game-icf'
p581
NsS'android-tm'
p582
NsS'winmobile-icon32'
p583
NsS'ws8-logo-image150x150'
p584
NsS'wp81-logo-image150x150'
p585
NsS'ws81-product-version'
p586
NsS'osx-ext-dll'
p587
(lp588
S'c:/marmalade/7.4/extensions/pvrtextool/lib/osx/libPVRTexTool.dylib'
p589
asS'iphone-provisioning-profile'
p590
NsS'win32-icon'
p591
NsS'ws8-splash-screen-image620x300'
p592
NsS'wp81-extra-pri'
p593
(lp594
sS'ws8-ext-capabilities'
p595
(lp596
sS'android-icon-hdpi'
p597
NsS'iphone-ipad-only'
p598
NsS'iphone-splash-full-orient'
p599
NsS'wp8-tile-fliptemplate-supports-large'
p600
NsS'iphone-show-status-bar'
p601
NsS'roku-requires-mkv'
p602
NsS'long-caption'
p603
NsS'android-pkgname'
p604
NsS'wp81-publisher-display-name'
p605
NsS'blackberry-permissions-read-device-identifying-information'
p606
NsS'ws81-certificate-end-date'
p607
NsS'psp-dlgcontentid'
p608
NsS'iphone-minimum-ios-version'
p609
NsS'target-folder'
p610
NsS'tizen-dist1-CA-path'
p611
NsS'symbian-icon2-format'
p612
NsS'tizen-author-key'
p613
NsS'firefoxos-icon-128X128'
p614
NsS'iphone-region'
p615
NsS'uiq3-icon3-mask'
p616
NsS'brew-encoding'
p617
NsS'android-x86'
p618
NsS'nds-initialcode'
p619
NsS'iphone-persistent-wifi'
p620
NsS'psp-snd0'
p621
NsS'roku-icon-focus-hd'
p622
NsS'osx-appid'
p623
NsS'winmobile-install-folder'
p624
NsS'android-external-res'
p625
(lp626
sS'ws8-product-version'
p627
NsS'brew-priviledges'
p628
NsS'iphone-icon-ipad-search'
p629
NsS'iphone-icon-ipad'
p630
NsS'iphone-skip-icon-generation'
p631
NsS'roku-hidden'
p632
NsS'psp-titlename'
p633
NsS'wp81-product-version'
p634
NsS'symbian-icon1-mask'
p635
NsS'psp-parentallevel'
p636
NsS'iphone-launch-storyboard'
p637
NsS'splashscreen-use-all'
p638
NsS'wp8-author'
p639
NsS'symbian-disable-ecompxl'
p640
NsS'splashscreen-auto-onblack'
p641
NsS'iphone-icon-dir'
p642
NsS'iphone-icon-extra'
p643
NsS'win32-ext-dll'
p644
(lp645
S'c:/marmalade/7.4/extensions/pvrtextool/lib/win32/PVRTexTool.dll'
p646
asS'iphone-development-key'
p647
NsS'winmobile-icon48'
p648
NsS'android-unsigned'
p649
NsS'osx-appstore-category'
p650
NsS'version-revision'
p651
NsS'roku-icon-focus-sd'
p652
NsS'android-keystore'
p653
NsS'winmobile-png90'
p654
NsS'iphone-icon-ipad-high-res'
p655
NsS'iphone-disable-ipad'
p656
NsS'ws81-splash-screen-background'
p657
NsS'wp8-ext-capabilities'
p658
(lp659
sS'brew-icon-large'
p660
NsS'symbian-icon1-mask-black'
p661
NsS'ws8-extra-res'
p662
(lp663
sS'iphone-bundle-localisations'
p664
NsS'winmobile-png60'
p665
NsS'blackberry-permissions-access-shared'
p666
NsS'blackberry-author'
p667
NsS'android-icon-xxxhdpi'
p668
NsS'olddeploytoolstyle'
p669
NsS'android_icon_gallery'
p670
NsS'wp81-splash-screen-background'
p671
NsS'winmobile-cab-compress'
p672
NsS'iphone-info-plist'
p673
NsS'ws81-ext-managed-dll'
p674
(lp675
sS'playbook-cskpass'
p676
NsS'ws8-distribution-pfx-password'
p677
NsS'symbian-key'
p678
NsS'app-icf'
p679
NsS'blackberry-storepass'
p680
NsS'wp8-tile-fliptemplate-back-title'
p681
NsS'brew-compress-loader'
p682
NsS'win32-pref-windowposy'
p683
NsS'win32-pref-windowposx'
p684
NsS'roku-requires-audiometadata'
p685
NsS'wp8-exclude-low-mem'
p686
NsS'iphone-icon-ipad-search-high-res'
p687
NsS'iphone-link-libdir'
p688
(lp689
sS'wp81-ext-capabilities'
p690
(lp691
sS'blackberry-permissions-read-geolocation'
p692
NsS'ws81-ext-device-capabilities'
p693
(lp694
sS'tizen-signed'
p695
NsS'android-extra-application-manifest'
p696
(lp697
sS'ws8-ext-native-dll'
p698
(lp699
sS'symbian-icon2-mask'
p700
NsS'iphone-launch-extra'
p701
NsS'webos-memory'
p702
NsS'android-keypass'
p703
NsS'name'
p704
NsS'uiq3-icon2-format'
p705
NsS'roku-splash-screen-sd'
p706
NsS'auto-derbh'
p707
NsS'roku-icon-side-sd'
p708
NsS'android-external-assets'
p709
(lp710
sS'nds-publicsavedatasize'
p711
NsS'splashscreen'
p712
NsS'brew-mif'
p713
NsS'iphone-icon-settings-high-res'
p714
NsS'android-manifest'
p715
NsS'ws81-splash-screen-image620x300'
p716
NsS'wp81-product-name'
p717
NsS's3e-compression'
p718
NsS'tizen-author-password'
p719
NsS'wp8-tile-fliptemplate-back-content'
p720
NsS'blackberry-extra-descriptor'
p721
(lp722
sS'symbian-icon1'
p723
NsS'symbian-icon2'
p724
NsS'nds-makercode'
p725
NsS'android-extra-styles-file'
p726
NsS'wp81-publisher-id'
p727
NsS'nds-bannertitle-jp'
p728
NsS'wp81-logo-image44x44'
p729
NsS'osx-sign-for-store'
p730
NsS'symbian7-uid'
p731
NsS'wp8-tile-fliptemplate-large-back-content'
p732
NsS'wp81-phone-publisher-id'
p733
NsS'nds-bannertitle-cn'
p734
NsS'iphone-distribution-key'
p735
NsS'android-icon-gallery'
p736
NsS'blackberry-keystore'
p737
NsS'iphone-nosign'
p738
NsS'caption'
p739
NsS'android-extra-manifest'
p740
(lp741
sS'wp81-ext-sdk-ref'
p742
(lp743
sS'android-icon-xxhdpi'
p744
NsS'version-minor'
p745
NsS'iphone-skip-launch-generation'
p746
NsS'iphone-link-libdirs'
p747
(lp748
sS'iphone-icon-large'
p749
NsS'symbian-keypwd'
p750
NsS'symbian8-uid'
p751
NsS'symbian-cert-key'
p752
NsS'winmobile-ampd-part-number'
p753
NsS'arch'
p754
NsS'nds-romheadertemplate'
p755
NsS'webos-icon'
p756
NsS'wp81-ext-device-capabilities'
p757
(lp758
sS'psp-dlgprotectdocument'
p759
NsS'ws8-splash-screen-background'
p760
NsS'android-icon-mdpi'
p761
NsS'nds-icon'
p762
NsS'ws8-custom-manifest-fill'
p763
NsS'iphone-development-cert'
p764
NsS'blackberry-phone-icon'
p765
NsS'iphone-enable-4inch-retina'
p766
NsS'ws8-custom-manifest'
p767
NsS'version-major'
p768
NsS'wp8-genre-isgame'
p769
NsS'uiq3-uid'
p770
NsS'iphone-splash-retina-generate'
p771
NsS'tizen-hw-acceleration'
p772
NsS'iphone_bundle_localisations'
p773
NsS'tizen-dist1-key'
p774
NsS'wp81-custom-manifest-fill'
p775
NsS'wp8-custom-manifest'
p776
NsS'nds-bannertitle-ge'
p777
NsS'iphone-sign-for-distribution'
p778
NsS'wp8-tile-fliptemplate-medium-back-image'
p779
NsS'wp8-publisher-id'
p780
NsS'icon'
p781
NsS'wp8-exclude-wxga'
p782
NsS'wp81-identity-name'
p783
NsS'uiq3-icon2-mask'
p784
NsS'iphone-splashscreen-portrait'
p785
NsS'iphone-icon-high-res'
p786
NsS'ws81-distribution-pfx-password'
p787
NsS'playbook-author'
p788
NsS'android-icon-xhdpi'
p789
NsS'linux-ext-lib'
p790
(lp791
sS'blackberry-permissions-access-internet'
p792
NsS'wp8-exclude-720p'
p793
NsS'lgtv-use-drm'
p794
NsS'symbian-platsecflags'
p795
NsS'ws8-description'
p796
NsS'blackberry-playbook-icon'
p797
NsS'copyright'
p798
NsS'win32-gles-directory'
p799
NsS'version'
p800
NsS'iphone-uiviewcontroller-based-status-bar'
p801
NsS'ws81-logo-image150x150'
p802
NsS'osx-signing-identity-app'
p803
NsS'tizen-project-url'
p804
NsS'symbian-icon-svg'
p805
NsS'android-aliasname'
p806
NsS'psp-dlgmanual'
p807
NsS'brew-uid'
p808
NsS'symbian-locationsupport'
p809
NsS'wp81-logo-image50x50'
p810
NsS'ws8-ext-managed-dll'
p811
(lp812
sS'nds-bannertitle-it'
p813
NsS'ws81-custom-manifest-fill'
p814
NsS'ws8-ext-sdk-manifest-part'
p815
(lp816
sS'uiq3-icon1-mask'
p817
NsS'winmobile-icon16'
p818
NsS'ws8-product-name'
p819
NsS'blackberry-cskpass'
p820
NsS'winmobile-start-menu-folder'
p821
NsS'brew-clsid'
p822
NsS'roku-requires-bluetooth'
p823
NsS'ws8-ext-device-capabilities'
p824
(lp825
sS'blackberry-permissions-use-camera'
p826
NsS'ws81-extra-pri'
p827
(lp828
sS'iphone-prerendered-icon'
p829
NsS'iphone-appid'
p830
NsS'ws8-identity-name'
p831
NsS'tizen-dist2-CA-path'
p832
NsS'android-external-jars'
p833
(lp834
sS'winmobile-icon64'
p835
NsS'blackberry-permissions-post-notification'
p836
NsS'winmobile-setup-dll'
p837
NsS'firefoxos-manifest'
p838
NsS'win8-winrt-extra-res'
p839
(lp840
sS'wp81-ext-sdk-manifest-part'
p841
(lp842
sS'symbian9-uid'
p843
NsS'iphone-icon-ipad-ios7'
p844
NsS'winmobile-trace-file'
p845
NsS'roku-splash-color'
p846
NsS'psp-appversion'
p847
NsS'ws8-publisher-id'
p848
NsS'android-supports-gl-texture'
p849
(lp850
sS'winmobile-png45'
p851
NsS'wp81-extra-res'
p852
(lp853
sS'android-storepass'
p854
NsS'osx-signing-identity-inst'
p855
NsS'android-custom-activity'
p856
NsS'psp-discversion'
p857
NsS'wp81-ext-managed-dll'
p858
(lp859
sS'psp-copyright'
p860
NsS'embed-icf'
p861
NsS'tizen-manifest'
p862
NsS'osx-icon'
p863
NsS'webos-appinfo'
p864
NsS'psp-dlghealthwarning'
p865
NsS'webos-appid'
p866
NsS'roku-icon-side-hd'
p867
NsS'iphone-icon-ipad-search-high-res-ios7'
p868
NsS'ws81-ext-sdk-manifest-part'
p869
(lp870
sS'loader_name_prefix'
p871
NsS'iphone-launch-dir'
p872
NsS'nds-titlename'
p873
NsS'ws81-logo-image50x50'
p874
NsS'wp81-custom-manifest'
p875
NsS'osx-entitlements-plist'
p876
NsS'psp-dlgicon0'
p877
NsS'winmobile-nouninstall'
p878
NsS'psp-discid'
p879
NsS'tizen-dist2-password'
p880
NsS'ws8-ext-sdk-ref'
p881
(lp882
sS'iphone-extra-string'
p883
(lp884
sS'version-string'
p885
NsS'iphone-icon-high-res-ios7'
p886
NsS'blackberry-permissions-record-audio'
p887
NsS'ws8-certificate-end-date'
p888
NsS'tizen-so'
p889
(lp890
sS'wp8-tile-fliptemplate-small-image'
p891
NsS'playbook-authorid'
p892
NsS'iphone-signing-identity'
p893
NsS'roku-persist-quota'
p894
NsS'nds-bannertitle-fr'
p895
NsS'ws8-distribution-pfx'
p896
NsS'ws8-publisher-display-name'
p897
NsS'brew-icon-small'
p898
NsS'psp-dlgpic2'
p899
NsS'psp-dlgpic0'
p900
NsS'psp-pic0'
p901
NsS'psp-pic1'
p902
NsS'win32-pref-windowtitle'
p903
NsS'psp-icon0'
p904
NsS'psp-icon1'
p905
NsS'ws81-identity-name'
p906
NsS'winmobile-icon'
p907
NsS'iphone-no-splash'
p908
NsS'iphone-splash'
p909
NsS'iphone-app-fonts'
p910
NsS'wp8-ext-native-dll'
p911
(lp912
sS'wp81-splash-screen-image480x800'
p913
NsS'ws81-distribution-cer'
p914
NsS'iphone-backgroundmode-audio'
p915
NsS'uiq3-icon2'
p916
NsS'uiq3-icon3'
p917
NsS'uiq3-icon1'
p918
NsS'uiq3-icon1-format'
p919
NsS'ws8-logo-image50x50'
p920
NsS'symbian-icon2-mask-black'
p921
NsS'symbian-run-on-install'
p922
NsS'wp81-description'
p923
NsS'ws81-publisher-display-name'
p924
NsS'firefoxos-xulrunner'
p925
NsS'symbian-soundrecordsupport'
p926
NsS'nds-bannertitle-sp'
p927
NsS'psp-producer'
p928
NsS'iphone-apple-wwdr-cert'
p929
NsS'android-icon-nonstandard'
p930
NsS'win32-pref-processtitle'
p931
NsS'nds-bannertitle-hn'
p932
NsS'tizen-dist2-key'
p933
NsS'brew-depends'
p934
NsS'ws81-custom-manifest'
p935
NsS'iphone-allow-launch-rotation'
p936
NsS'iphone-icon-ipad-search-ios7'
p937
NsS'brew-icon-medium'
p938
NsS'iphone-bundle-url-name'
p939
NsS'wp8-tile-fliptemplate-large-front-image'
p940
NsS'tizen-dist2-CA-root-path'
p941
NsS'ws81-description'
p942
NsS'uiq3-icon3-format'
p943
NsS'ws81-logo-image30x30'
p944
NsS'win8-phone-extra-res'
p945
(lp946
sS'iphone-signing-host'
p947
NsS'tizen-icon'
p948
NsS'osx-info-plist'
p949
NsS'symbian-icon1-format'
p950
NsS'win8-store-extra-res'
p951
(lp952
sS'blackberry-authorid'
p953
NsS'ws81-publisher-id'
p954
NsS'ws81-distribution-pfx'
p955
NsS'wp8-description'
p956
NsS'iphone-link-opts'
p957
(lp958
sS'ws81-ext-sdk-ref'
p959
(lp960
sS'roku-splash-min-time'
p961
NsS'wp8-tile-fliptemplate-medium-front-image'
p962
NsS'iphone-disable-launch-images'
p963
NsS'provider'
p964
NsS'playbook-keystore'
p965
NsS'tizen-appid'
p966
NsS'wp8-extra-res'
p967
(lp968
sS'symbian-osexecsupport'
p969
NsS'android-install-location'
p970
NsS'nds-privatesavedatasize'
p971
NsS'iphone-disable-testflight'
p972
NsS'playbook-storepass'
p973
NsS'android-icon-ldpi'
p974
NsS'manufacturer'
p975
NsS'itunes-artwork'
p976
NsS'iphone-extra-sections'
p977
NsS'ws81-product-name'
p978
NsS'ws81-ext-native-dll'
p979
(lp980
sS'ws8-extra-pri'
p981
(lp982
sS'wp8-product-id'
p983
NsS'ws8-logo-image30x30'
p984
NsS'wp8-ext-managed-dll'
p985
(lp986
sS'iphone-splashscreen-landscape'
p987
NsS'symbian-maxheapsize'
p988
NsS'android-extra-packages'
p989
(lp990
sS'priv-sign-key'
p991
NsS'networking'
p992
NsS'android-icon'
p993
NsS'iphone-icon-settings'
p994
NsS'wp81-phone-product-id'
p995
NsS'firefoxos-icon-60X60'
p996
NsS'iphone-distribution-cert'
p997
NsS'android_extra_strings'
p998
NsS'nds-bannertitle-en'
p999
NsS'wp8-tile-fliptemplate-title'
p1000
NsS'android-so'
p1001
(lp1002
sS'wp8-higher-mem'
p1003
NsS'wp8-ext-sdk-ref'
p1004
(lp1005
sS'wp8-fast-resume-mode'
p1006
NsS'roku-splash-screen-hd'
p1007
NsS'iphone-bundle-url-schemes'
p1008
NsS'roku-screensaver-private'
p1009
NsS'osx-extra-res'
p1010
(lp1011
sS'ws81-extra-res'
p1012
(lp1013
sS'playbook-icon'
p1014
NsS'uid'
p1015
NsS'pkguid-as-uid'
p1016
NsS'wp81-ext-native-dll'
p1017
(lp1018
sS'tizen-dist1-password'
p1019
NsS'roku-screensaver-title'
p1020
NsS'osx-minimum-osx-version'
p1021
NsS'symbian-cert'
p1022
NsS'iphone-icon'
p1023
NsS'ws81-ext-capabilities'
p1024
(lp1025
sS'ws8-distribution-cer'
p1026
NsS'playbook-access-shared'
p1027
NsS'iphone-icon-ipad-high-res-ios7'
p1028
NsS'iphone-link-libs'
p1029
(lp1030
sS'wp8-exclude-wvga'
p1031
NsS'assets'
p1032
NsS'wp8-tile-fliptemplate-large-back-image'
p1033
NsS'wp8-custom-manifest-fill'
p1034
NsS'pub-sign-key'
p1035
NsS'android-extra-strings'
p1036
NsS'tizen-author-CA-path'
p1037
Nssg333
g567
sbssS'platform'
p1038
S'S3E'
p1039
sg65
S'1.0'
p1040
sS'arcade_platform'
p1041
g4
sS'extensions'
p1042
(dp1043
sS'source_groups_tree'
p1044
(dp1045
S'(libpng)'
p1046
(dp1047
S'h'
p1048
(dp1049
S'c:/marmalade/7.4/modules/third_party/libpng/h/png.h'
p1050
(lp1051
I1
a(dp1052
asS'c:/marmalade/7.4/modules/third_party/libpng/h/pngconf.h'
p1053
(lp1054
I1
ag1052
assS'c:/marmalade/7.4/modules/third_party/libpng/libpng.mkf'
p1055
(lp1056
I1
a(dp1057
assS'(libjpeg)'
p1058
(dp1059
g1048
(dp1060
S'c:/marmalade/7.4/modules/third_party/libjpeg/h/jerror.h'
p1061
(lp1062
I1
a(dp1063
asS'c:/marmalade/7.4/modules/third_party/libjpeg/h/jmemsys.h'
p1064
(lp1065
I1
ag1063
asS'c:/marmalade/7.4/modules/third_party/libjpeg/h/jchuff.h'
p1066
(lp1067
I1
ag1063
asS'c:/marmalade/7.4/modules/third_party/libjpeg/h/jpeglib.h'
p1068
(lp1069
I1
ag1063
asS'c:/marmalade/7.4/modules/third_party/libjpeg/h/cdjpeg.h'
p1070
(lp1071
I1
ag1063
asS'c:/marmalade/7.4/modules/third_party/libjpeg/h/jinclude.h'
p1072
(lp1073
I1
ag1063
asS'c:/marmalade/7.4/modules/third_party/libjpeg/h/jconfig.h'
p1074
(lp1075
I1
ag1063
asS'c:/marmalade/7.4/modules/third_party/libjpeg/h/cderror.h'
p1076
(lp1077
I1
ag1063
asS'c:/marmalade/7.4/modules/third_party/libjpeg/h/jdct.h'
p1078
(lp1079
I1
ag1063
asS'c:/marmalade/7.4/modules/third_party/libjpeg/h/jversion.h'
p1080
(lp1081
I1
ag1063
asS'c:/marmalade/7.4/modules/third_party/libjpeg/h/transupp.h'
p1082
(lp1083
I1
ag1063
asS'c:/marmalade/7.4/modules/third_party/libjpeg/h/jdhuff.h'
p1084
(lp1085
I1
ag1063
asS'c:/marmalade/7.4/modules/third_party/libjpeg/h/jpegint.h'
p1086
(lp1087
I1
ag1063
asS'c:/marmalade/7.4/modules/third_party/libjpeg/h/jmorecfg.h'
p1088
(lp1089
I1
ag1063
assS'c:/marmalade/7.4/modules/third_party/libjpeg/libjpeg.mkf'
p1090
(lp1091
I1
a(dp1092
assS'(tiniconv)'
p1093
(dp1094
S'c:/marmalade/7.4/modules/third_party/tiniconv/source/tiniconv_int.h'
p1095
(lp1096
I1
a(dp1097
asS'c:/marmalade/7.4/modules/third_party/tiniconv/tiniconv.mkf'
p1098
(lp1099
I1
a(dp1100
asS'c:/marmalade/7.4/modules/third_party/tiniconv/source/tiniconv.h'
p1101
(lp1102
I1
ag1097
assS'source'
p1103
(dp1104
S'c:/Users/Ahmed Saleh/Documents/spaceinvader/source/Ship.cpp'
p1105
(lp1106
I1
a(dp1107
asS'c:/Users/Ahmed Saleh/Documents/spaceinvader/source/spaceinvader.cpp'
p1108
(lp1109
I1
ag1107
asS'c:/Users/Ahmed Saleh/Documents/spaceinvader/source/spaceinvader.h'
p1110
(lp1111
I1
ag1107
asS'c:/Users/Ahmed Saleh/Documents/spaceinvader/source/Scene.h'
p1112
(lp1113
I1
ag1107
asS'c:/Users/Ahmed Saleh/Documents/spaceinvader/source/Scene.cpp'
p1114
(lp1115
I1
ag1107
asS'c:/Users/Ahmed Saleh/Documents/spaceinvader/source/Ship.h'
p1116
(lp1117
I1
ag1107
assS'Extensions'
p1118
(dp1119
S'PVRTexTool'
p1120
(dp1121
S'interface'
p1122
(dp1123
S'c:/marmalade/7.4/extensions/pvrtextool/interface/PVRTexTool_interface.cpp'
p1124
(lp1125
I1
a(dp1126
asS'c:/marmalade/7.4/extensions/pvrtextool/interface/PVRTexTool.defines.txt'
p1127
(lp1128
I1
ag1126
assS'c:/marmalade/7.4/extensions/pvrtextool/pvrtextool.mkf'
p1129
(lp1130
I1
a(dp1131
asS'c:/marmalade/7.4/extensions/pvrtextool/h/PVRTexTool.h'
p1132
(lp1133
I1
ag1126
asssS"'Marmalade Studio'"
p1134
(dp1135
S'iw2dscenegraph'
p1136
(dp1137
S'c:/marmalade/7.4/modules/iw2dscenegraph/docs/iw2dscenegraph.defines.txt'
p1138
(lp1139
I1
a(dp1140
asS'c:/marmalade/7.4/modules/iw2dscenegraph/source/Iw2DSceneGraph.cpp'
p1141
(lp1142
I1
ag1140
asS'c:/marmalade/7.4/modules/iw2dscenegraph/iw2dscenegraph.mkf'
p1143
(lp1144
I1
a(dp1145
asS'c:/marmalade/7.4/modules/iw2dscenegraph/h/Iw2DSceneGraph.h'
p1146
(lp1147
I1
ag1140
assS'iwgl'
p1148
(dp1149
S'c:/marmalade/7.4/modules/iwgl/iwgl.mkf'
p1150
(lp1151
I1
a(dp1152
asS'c:/marmalade/7.4/modules/iwgl/docs/iwgl.config.txt'
p1153
(lp1154
I1
a(dp1155
asS'c:/marmalade/7.4/modules/iwgl/h/IwGL.h'
p1156
(lp1157
I1
ag1155
asS'c:/marmalade/7.4/modules/iwgl/h/IwGLExt.h'
p1158
(lp1159
I1
ag1155
assS'iw2d'
p1160
(dp1161
S'c:/marmalade/7.4/modules/iw2d/docs/iw2d.config.txt'
p1162
(lp1163
I1
a(dp1164
asS'c:/marmalade/7.4/modules/iw2d/docs/iw2d_public.defines.txt'
p1165
(lp1166
I1
ag1164
asS'c:/marmalade/7.4/modules/iw2d/h/Iw2D.h'
p1167
(lp1168
I1
ag1164
asS'c:/marmalade/7.4/modules/iw2d/iw2d.mkf'
p1169
(lp1170
I1
a(dp1171
assS'iwgxfont'
p1172
(dp1173
S'c:/marmalade/7.4/modules/iwgxfont/docs/iwgxfont_public.defines.txt'
p1174
(lp1175
I1
a(dp1176
asS'c:/marmalade/7.4/modules/iwgxfont/h/IwGxFontGlyph.h'
p1177
(lp1178
I1
ag1176
asS'c:/marmalade/7.4/modules/iwgxfont/docs/iwgxfont.config.txt'
p1179
(lp1180
I1
ag1176
asS'c:/marmalade/7.4/modules/iwgxfont/h/IwGxFont.h'
p1181
(lp1182
I1
ag1176
asS'c:/marmalade/7.4/modules/iwgxfont/h/IwGxFontTypes.h'
p1183
(lp1184
I1
ag1176
asS'c:/marmalade/7.4/modules/iwgxfont/h/IwGxFontPreparedData.h'
p1185
(lp1186
I1
ag1176
asS'c:/marmalade/7.4/modules/iwgxfont/h/IwGxFontState.h'
p1187
(lp1188
I1
ag1176
asS'c:/marmalade/7.4/modules/iwgxfont/h/IwGxFontContainer.h'
p1189
(lp1190
I1
ag1176
asS'c:/marmalade/7.4/modules/iwgxfont/iwgxfont.mkf'
p1191
(lp1192
I1
a(dp1193
assS'iwgeom'
p1194
(dp1195
S'c:/marmalade/7.4/modules/iwgeom/docs/iwgeom.config.txt'
p1196
(lp1197
I1
a(dp1198
asS'c:/marmalade/7.4/modules/iwgeom/h/IwGeomFIntersect.h'
p1199
(lp1200
I1
ag1198
asS'c:/marmalade/7.4/modules/iwgeom/h/IwGeomMat2D.h.tpl'
p1201
(lp1202
I1
ag1198
asS'c:/marmalade/7.4/modules/iwgeom/iwgeom.mkf'
p1203
(lp1204
I1
a(dp1205
asS'c:/marmalade/7.4/modules/iwgeom/h/IwGeomVec.h.tpl'
p1206
(lp1207
I1
ag1198
asS'c:/marmalade/7.4/modules/iwgeom/h/IwGeomFSphere.h'
p1208
(lp1209
I1
ag1198
asS'c:/marmalade/7.4/modules/iwgeom/h/IwGeomFQuat.h'
p1210
(lp1211
I1
ag1198
asS'c:/marmalade/7.4/modules/iwgeom/h/IwGeomMenu.h'
p1212
(lp1213
I1
ag1198
asS'c:/marmalade/7.4/modules/iwgeom/h/IwGeomFMat2D.h'
p1214
(lp1215
I1
ag1198
asS'c:/marmalade/7.4/modules/iwgeom/h/IwGeomFVec4.h'
p1216
(lp1217
I1
ag1198
asS'c:/marmalade/7.4/modules/iwgeom/h/IwGeomQuat.h'
p1218
(lp1219
I1
ag1198
asS'c:/marmalade/7.4/modules/iwgeom/h/IwGeomFBBox.h'
p1220
(lp1221
I1
ag1198
asS'c:/marmalade/7.4/modules/iwgeom/h/IwGeomSVec4.h'
p1222
(lp1223
I1
ag1198
asS'c:/marmalade/7.4/modules/iwgeom/h/IwGeomFVec2.h'
p1224
(lp1225
I1
ag1198
asS'c:/marmalade/7.4/modules/iwgeom/h/IwGeomVec.h'
p1226
(lp1227
I1
ag1198
asS'c:/marmalade/7.4/modules/iwgeom/h/IwGeomPlane.h'
p1228
(lp1229
I1
ag1198
asS'c:/marmalade/7.4/modules/iwgeom/h/IwGeomQuat.h.tpl'
p1230
(lp1231
I1
ag1198
asS'c:/marmalade/7.4/modules/iwgeom/h/IwGeomSVec3.h'
p1232
(lp1233
I1
ag1198
asS'c:/marmalade/7.4/modules/iwgeom/h/IwGeomMat.h'
p1234
(lp1235
I1
ag1198
asS'c:/marmalade/7.4/modules/iwgeom/h/IwGeomVec3.h'
p1236
(lp1237
I1
ag1198
asS'c:/marmalade/7.4/modules/iwgeom/h/IwGeomVec2.h'
p1238
(lp1239
I1
ag1198
asS'c:/marmalade/7.4/modules/iwgeom/h/IwGeomLegacy.h'
p1240
(lp1241
I1
ag1198
asS'c:/marmalade/7.4/modules/iwgeom/h/IwGeomSQuat.h'
p1242
(lp1243
I1
ag1198
asS'c:/marmalade/7.4/modules/iwgeom/h/IwGeomCore.h'
p1244
(lp1245
I1
ag1198
asS'c:/marmalade/7.4/modules/iwgeom/h/IwGeomVec4.h'
p1246
(lp1247
I1
ag1198
asS'c:/marmalade/7.4/modules/iwgeom/h/IwGeomBBox.h'
p1248
(lp1249
I1
ag1198
asS'c:/marmalade/7.4/modules/iwgeom/h/IwGeomIntersect.h'
p1250
(lp1251
I1
ag1198
asS'c:/marmalade/7.4/modules/iwgeom/h/IwGeomSVec2.h'
p1252
(lp1253
I1
ag1198
asS'c:/marmalade/7.4/modules/iwgeom/h/IwGeomMat2D.h'
p1254
(lp1255
I1
ag1198
asS'c:/marmalade/7.4/modules/iwgeom/h/IwGeomSphere.h'
p1256
(lp1257
I1
ag1198
asS'c:/marmalade/7.4/modules/iwgeom/h/IwGeomFVec3.h'
p1258
(lp1259
I1
ag1198
asS'c:/marmalade/7.4/modules/iwgeom/h/IwGeom.h'
p1260
(lp1261
I1
ag1198
asS'c:/marmalade/7.4/modules/iwgeom/h/IwGeomMat.h.tpl'
p1262
(lp1263
I1
ag1198
asS'c:/marmalade/7.4/modules/iwgeom/h/IwGeomFPlane.h'
p1264
(lp1265
I1
ag1198
asS'c:/marmalade/7.4/modules/iwgeom/h/IwGeomFMat.h'
p1266
(lp1267
I1
ag1198
asS'c:/marmalade/7.4/modules/iwgeom/h/IwGeomSqrt.h'
p1268
(lp1269
I1
ag1198
assS'iwresmanager'
p1270
(dp1271
S'c:/marmalade/7.4/modules/iwresmanager/h/IwResGroup.h'
p1272
(lp1273
I1
a(dp1274
asS'c:/marmalade/7.4/modules/iwresmanager/h/IwResManager.h'
p1275
(lp1276
I1
ag1274
asS'c:/marmalade/7.4/modules/iwresmanager/h/IwResHandlerITX.h'
p1277
(lp1278
I1
ag1274
asS'c:/marmalade/7.4/modules/iwresmanager/h/IwResSerialise.h'
p1279
(lp1280
I1
ag1274
asS'c:/marmalade/7.4/modules/iwresmanager/h/IwResHandlerGROUP.h'
p1281
(lp1282
I1
ag1274
asS'c:/marmalade/7.4/modules/iwresmanager/iwresmanager.mkf'
p1283
(lp1284
I1
a(dp1285
asS'c:/marmalade/7.4/modules/iwresmanager/h/IwResHandlerImage.h'
p1286
(lp1287
I1
ag1274
asS'c:/marmalade/7.4/modules/iwresmanager/h/IwResHandler.h'
p1288
(lp1289
I1
ag1274
asS'c:/marmalade/7.4/modules/iwresmanager/docs/iwresmanager.config.txt'
p1290
(lp1291
I1
ag1274
asS'c:/marmalade/7.4/modules/iwresmanager/h/IwResManagerClass.h'
p1292
(lp1293
I1
ag1274
assS'iwgx'
p1294
(dp1295
S'c:/marmalade/7.4/modules/iwgx/h/IwDebugPrim.h'
p1296
(lp1297
I1
a(dp1298
asS'c:/marmalade/7.4/modules/iwgx/h/IwGxFuncTable.h'
p1299
(lp1300
I1
ag1298
asS'c:/marmalade/7.4/modules/iwgx/h/IwClip.inl'
p1301
(lp1302
I1
ag1298
asS'c:/marmalade/7.4/modules/iwgx/h/IwGxPrint.h'
p1303
(lp1304
I1
ag1298
asS'c:/marmalade/7.4/modules/iwgx/h/IwGx.h'
p1305
(lp1306
I1
ag1298
asS'c:/marmalade/7.4/modules/iwgx/h/IwTexture.h'
p1307
(lp1308
I1
ag1298
asS'c:/marmalade/7.4/modules/iwgx/h/IwFColour.h'
p1309
(lp1310
I1
ag1298
asS'c:/marmalade/7.4/modules/iwgx/h/IwColour.h'
p1311
(lp1312
I1
ag1298
asS'c:/marmalade/7.4/modules/iwgx/h/IwGxState.h'
p1313
(lp1314
I1
ag1298
asS'c:/marmalade/7.4/modules/iwgx/h/IwClip.h'
p1315
(lp1316
I1
ag1298
asS'c:/marmalade/7.4/modules/iwgx/h/IwTPage.h'
p1317
(lp1318
I1
ag1298
asS'c:/marmalade/7.4/modules/iwgx/h/IwMaterial.h'
p1319
(lp1320
I1
ag1298
asS'c:/marmalade/7.4/modules/iwgx/h/IwGxDebug.h'
p1321
(lp1322
I1
ag1298
asS'c:/marmalade/7.4/modules/iwgx/h/IwMatAnim.h'
p1323
(lp1324
I1
ag1298
asS'c:/marmalade/7.4/modules/iwgx/h/IwGxStream.h'
p1325
(lp1326
I1
ag1298
asS'c:/marmalade/7.4/modules/iwgx/h/IwResHandlerMTL.h'
p1327
(lp1328
I1
ag1298
asS'c:/marmalade/7.4/modules/iwgx/h/IwGxMetrics.h'
p1329
(lp1330
I1
ag1298
asS'c:/marmalade/7.4/modules/iwgx/h/IwGxError.h'
p1331
(lp1332
I1
ag1298
asS'c:/marmalade/7.4/modules/iwgx/docs/iwgx.config.txt'
p1333
(lp1334
I1
ag1298
asS'c:/marmalade/7.4/modules/iwgx/h/IwGxTransformSW.h'
p1335
(lp1336
I1
ag1298
asS'c:/marmalade/7.4/modules/iwgx/iwgx.mkf'
p1337
(lp1338
I1
a(dp1339
asS'c:/marmalade/7.4/modules/iwgx/docs/iwgx_public.defines.txt'
p1340
(lp1341
I1
ag1298
asS'c:/marmalade/7.4/modules/iwgx/h/IwGxShaderTechnique.h'
p1342
(lp1343
I1
ag1298
asS'c:/marmalade/7.4/modules/iwgx/h/IwGxTypes.h'
p1344
(lp1345
I1
ag1298
asS'c:/marmalade/7.4/modules/iwgx/h/IwGxSurface.h'
p1346
(lp1347
I1
ag1298
assS'iw2dscenegraphcore'
p1348
(dp1349
S'c:/marmalade/7.4/modules/iw2dscenegraphcore/iw2dscenegraphcore.mkf'
p1350
(lp1351
I1
a(dp1352
asS'c:/marmalade/7.4/modules/iw2dscenegraphcore/source/Iw2DSceneGraphCore.cpp'
p1353
(lp1354
I1
a(dp1355
asS'c:/marmalade/7.4/modules/iw2dscenegraphcore/h/Iw2DSceneGraphCore.h'
p1356
(lp1357
I1
ag1355
assS'iwutil'
p1358
(dp1359
S'c:/marmalade/7.4/modules/iwutil/h/IwTextParser.h'
p1360
(lp1361
I1
a(dp1362
asS'c:/marmalade/7.4/modules/iwutil/h/IwMenu.h'
p1363
(lp1364
I1
ag1362
asS'c:/marmalade/7.4/modules/iwutil/h/IwUtilInitTerm.h'
p1365
(lp1366
I1
ag1362
asS'c:/marmalade/7.4/modules/iwutil/h/IwCopyingPtr.h'
p1367
(lp1368
I1
ag1362
asS'c:/marmalade/7.4/modules/iwutil/h/IwDebug.h'
p1369
(lp1370
I1
ag1362
asS'c:/marmalade/7.4/modules/iwutil/h/IwVariableBitField.h'
p1371
(lp1372
I1
ag1362
asS'c:/marmalade/7.4/modules/iwutil/h/IwBuffer.h'
p1373
(lp1374
I1
ag1362
asS'c:/marmalade/7.4/modules/iwutil/h/IwRandom.h'
p1375
(lp1376
I1
ag1362
asS'c:/marmalade/7.4/modules/iwutil/h/IwResource.h'
p1377
(lp1378
I1
ag1362
asS'c:/marmalade/7.4/modules/iwutil/h/IwCore.h'
p1379
(lp1380
I1
ag1362
asS'c:/marmalade/7.4/modules/iwutil/h/IwTextParserITX.h'
p1381
(lp1382
I1
ag1362
asS'c:/marmalade/7.4/modules/iwutil/h/IwManaged.h'
p1383
(lp1384
I1
ag1362
asS'c:/marmalade/7.4/modules/iwutil/h/IwHashString.h'
p1385
(lp1386
I1
ag1362
asS'c:/marmalade/7.4/modules/iwutil/h/IwProfileMenu.h'
p1387
(lp1388
I1
ag1362
asS'c:/marmalade/7.4/modules/iwutil/h/IwManagedList.h'
p1389
(lp1390
I1
ag1362
asS'c:/marmalade/7.4/modules/iwutil/h/IwList.h'
p1391
(lp1392
I1
ag1362
asS'c:/marmalade/7.4/modules/iwutil/h/IwSerialise.h'
p1393
(lp1394
I1
ag1362
asS'c:/marmalade/7.4/modules/iwutil/h/IwClassFactory.h'
p1395
(lp1396
I1
ag1362
asS'c:/marmalade/7.4/modules/iwutil/h/IwTypes.h'
p1397
(lp1398
I1
ag1362
asS'c:/marmalade/7.4/modules/iwutil/h/IwAllocator.h'
p1399
(lp1400
I1
ag1362
asS'c:/marmalade/7.4/modules/iwutil/h/IwMemory.h'
p1401
(lp1402
I1
ag1362
asS'c:/marmalade/7.4/modules/iwutil/h/IwTextParseable.h'
p1403
(lp1404
I1
ag1362
asS'c:/marmalade/7.4/modules/iwutil/h/IwFile.h'
p1405
(lp1406
I1
ag1362
asS'c:/marmalade/7.4/modules/iwutil/h/IwRuntime.h'
p1407
(lp1408
I1
ag1362
asS'c:/marmalade/7.4/modules/iwutil/h/IwMemBucketHelpers.h'
p1409
(lp1410
I1
ag1362
asS'c:/marmalade/7.4/modules/iwutil/h/IwUncopyable.h'
p1411
(lp1412
I1
ag1362
asS'c:/marmalade/7.4/modules/iwutil/h/IwChar.h'
p1413
(lp1414
I1
ag1362
asS'c:/marmalade/7.4/modules/iwutil/h/IwOptimiseARM.h'
p1415
(lp1416
I1
ag1362
asS'c:/marmalade/7.4/modules/iwutil/h/IwImage.h'
p1417
(lp1418
I1
ag1362
asS'c:/marmalade/7.4/modules/iwutil/h/IwImageHelper.h'
p1419
(lp1420
I1
ag1362
asS'c:/marmalade/7.4/modules/iwutil/h/IwMemBucket.h'
p1421
(lp1422
I1
ag1362
asS'c:/marmalade/7.4/modules/iwutil/h/IwDivide.h'
p1423
(lp1424
I1
ag1362
asS'c:/marmalade/7.4/modules/iwutil/h/IwOptimiseSpeed.h'
p1425
(lp1426
I1
ag1362
asS'c:/marmalade/7.4/modules/iwutil/h/IwArray.h'
p1427
(lp1428
I1
ag1362
asS'c:/marmalade/7.4/modules/iwutil/docs/iwutil.config.txt'
p1429
(lp1430
I1
ag1362
asS'c:/marmalade/7.4/modules/iwutil/h/IwUTF8.h'
p1431
(lp1432
I1
ag1362
asS'c:/marmalade/7.4/modules/iwutil/h/IwEvent.h'
p1433
(lp1434
I1
ag1362
asS'c:/marmalade/7.4/modules/iwutil/h/IwMath.h'
p1435
(lp1436
I1
ag1362
asS'c:/marmalade/7.4/modules/iwutil/h/IwFibre.h'
p1437
(lp1438
I1
ag1362
asS'c:/marmalade/7.4/modules/iwutil/h/IwString.h'
p1439
(lp1440
I1
ag1362
asS'c:/marmalade/7.4/modules/iwutil/h/IwKeymap.h'
p1441
(lp1442
I1
ag1362
asS'c:/marmalade/7.4/modules/iwutil/iwutil.mkf'
p1443
(lp1444
I1
a(dp1445
asS'c:/marmalade/7.4/modules/iwutil/h/IwSingleton.h'
p1446
(lp1447
I1
ag1362
asS'c:/marmalade/7.4/modules/iwutil/h/IwAutoFile.h'
p1448
(lp1449
I1
ag1362
asS'c:/marmalade/7.4/modules/iwutil/h/IwOptimiseThumb.h'
p1450
(lp1451
I1
ag1362
asS'c:/marmalade/7.4/modules/iwutil/h/IwUtil.h'
p1452
(lp1453
I1
ag1362
asS'c:/marmalade/7.4/modules/iwutil/h/IwPath.h'
p1454
(lp1455
I1
ag1362
asS'c:/marmalade/7.4/modules/iwutil/h/IwMemManagerDL.h'
p1456
(lp1457
I1
ag1362
asS'c:/marmalade/7.4/modules/iwutil/h/IwDivTable.h'
p1458
(lp1459
I1
ag1362
asS'c:/marmalade/7.4/modules/iwutil/h/IwOptimiseSize.h'
p1460
(lp1461
I1
ag1362
asssS'(zlib)'
p1462
(dp1463
g1048
(dp1464
S'c:/marmalade/7.4/modules/third_party/zlib/h/zconf.h'
p1465
(lp1466
I1
a(dp1467
asS'c:/marmalade/7.4/modules/third_party/zlib/h/zlib.h'
p1468
(lp1469
I1
ag1467
assS'c:/marmalade/7.4/modules/third_party/zlib/zlib.mkf'
p1470
(lp1471
I1
a(dp1472
assS'(iwtween)'
p1473
(dp1474
S'c:/marmalade/7.4/modules/iwtween/source/IwTween.cpp'
p1475
(lp1476
I1
a(dp1477
asS'c:/marmalade/7.4/modules/iwtween/h/IwTween.h'
p1478
(lp1479
I1
ag1477
asS'c:/marmalade/7.4/modules/iwtween/iwtween.mkf'
p1480
(lp1481
I1
a(dp1482
assS'(s3e-default)'
p1483
(dp1484
S'c:/marmalade/7.4/s3e/s3e-default.mkf'
p1485
(lp1486
I1
a(dp1487
asssS'files'
p1488
(dp1489
S'IwGxFontPreparedData.h'
p1490
g307
(cmkb_main
File
p1491
g309
Ntp1492
Rp1493
(dp1494
S'flags'
p1495
g1176
sS'group'
p1496
(lp1497
S"'Marmalade Studio'"
p1498
ag1172
asg333
g1185
sbsS'iterator'
p1499
g307
(g1491
g309
Ntp1500
Rp1501
(dp1502
g1495
(dp1503
sg1496
(lp1504
S"'Marmalade System (S3E)'"
p1505
aS'stdc headers'
p1506
aS'c++'
p1507
asg333
S'c:/marmalade/7.4/s3e/h/std/c++/iterator'
p1508
sbsS'IwGL.h'
p1509
g307
(g1491
g309
Ntp1510
Rp1511
(dp1512
g1495
g1155
sg1496
(lp1513
S"'Marmalade Studio'"
p1514
ag1148
asg333
g1156
sbsS's3e.h'
p1515
g307
(g1491
g309
Ntp1516
Rp1517
(dp1518
g1495
g1503
sg1496
(lp1519
g1505
asg333
S'c:/marmalade/7.4/s3e/h/s3e.h'
p1520
sbsS'errno.h'
p1521
g307
(g1491
g309
Ntp1522
Rp1523
(dp1524
g1495
g1503
sg1496
(lp1525
g1505
aS'stdc headers'
p1526
asg333
S'c:/marmalade/7.4/s3e/h/std/errno.h'
p1527
sbsS'IwSingleton.h'
p1528
g307
(g1491
g309
Ntp1529
Rp1530
(dp1531
g1495
g1362
sg1496
(lp1532
S"'Marmalade Studio'"
p1533
ag1358
asg333
g1446
sbsS'dlfcn.h'
p1534
g307
(g1491
g309
Ntp1535
Rp1536
(dp1537
g1495
g1503
sg1496
g1525
sg333
S'c:/marmalade/7.4/s3e/h/std/dlfcn.h'
p1538
sbsS'stdio_streambuf'
p1539
g307
(g1491
g309
Ntp1540
Rp1541
(dp1542
g1495
g1503
sg1496
g1504
sg333
S'c:/marmalade/7.4/s3e/h/std/c++/stdio_streambuf'
p1543
sbsS'sched.h'
p1544
g307
(g1491
g309
Ntp1545
Rp1546
(dp1547
g1495
g1503
sg1496
g1525
sg333
S'c:/marmalade/7.4/s3e/h/std/sched.h'
p1548
sbsS'IwGeomFMat2D.h'
p1549
g307
(g1491
g309
Ntp1550
Rp1551
(dp1552
g1495
g1198
sg1496
(lp1553
S"'Marmalade Studio'"
p1554
ag1194
asg333
g1214
sbsS'cassert'
p1555
g307
(g1491
g309
Ntp1556
Rp1557
(dp1558
g1495
g1503
sg1496
g1504
sg333
S'c:/marmalade/7.4/s3e/h/std/c++/cassert'
p1559
sbsS'grp.h'
p1560
g307
(g1491
g309
Ntp1561
Rp1562
(dp1563
g1495
g1503
sg1496
g1525
sg333
S'c:/marmalade/7.4/s3e/h/std/grp.h'
p1564
sbsS'list'
p1565
g307
(g1491
g309
Ntp1566
Rp1567
(dp1568
g1495
g1503
sg1496
g1504
sg333
S'c:/marmalade/7.4/s3e/h/std/c++/list'
p1569
sbsS'IwGeomMat.h.tpl'
p1570
g307
(g1491
g309
Ntp1571
Rp1572
(dp1573
g1495
g1198
sg1496
g1553
sg333
g1262
sbsS'istream'
p1574
g307
(g1491
g309
Ntp1575
Rp1576
(dp1577
g1495
g1503
sg1496
g1504
sg333
S'c:/marmalade/7.4/s3e/h/std/c++/istream'
p1578
sbsS'jpeglib.h'
p1579
g307
(g1491
g309
Ntp1580
Rp1581
(dp1582
g1495
g1063
sg1496
(lp1583
g1058
ag1048
asg333
g1068
sbsS'iw2d_public.defines.txt'
p1584
g307
(g1491
g309
Ntp1585
Rp1586
(dp1587
g1495
g1164
sg1496
(lp1588
S"'Marmalade Studio'"
p1589
ag1160
asg333
g1165
sbsS'iostream.h'
p1590
g307
(g1491
g309
Ntp1591
Rp1592
(dp1593
g1495
g1503
sg1496
g1504
sg333
S'c:/marmalade/7.4/s3e/h/std/c++/iostream.h'
p1594
sbsS'string'
p1595
g307
(g1491
g309
Ntp1596
Rp1597
(dp1598
g1495
g1503
sg1496
g1504
sg333
S'c:/marmalade/7.4/s3e/h/std/c++/string'
p1599
sbsS'IwMemory.h'
p1600
g307
(g1491
g309
Ntp1601
Rp1602
(dp1603
g1495
g1362
sg1496
g1532
sg333
g1401
sbsS'IwGeomPlane.h'
p1604
g307
(g1491
g309
Ntp1605
Rp1606
(dp1607
g1495
g1198
sg1496
g1553
sg333
g1228
sbsS'iw2d.config.txt'
p1608
g307
(g1491
g309
Ntp1609
Rp1610
(dp1611
g1495
g1164
sg1496
g1588
sg333
g1162
sbsS'iomanip'
p1612
g307
(g1491
g309
Ntp1613
Rp1614
(dp1615
g1495
g1503
sg1496
g1504
sg333
S'c:/marmalade/7.4/s3e/h/std/c++/iomanip'
p1616
sbsS'iwgeom.mkf'
p1617
g307
(g1491
g309
Ntp1618
Rp1619
(dp1620
g1495
g1205
sg1496
g1553
sg333
g1203
sbsS'IwGxError.h'
p1621
g307
(g1491
g309
Ntp1622
Rp1623
(dp1624
g1495
g1298
sg1496
(lp1625
S"'Marmalade Studio'"
p1626
ag1294
asg333
g1331
sbsS'IwGeom.h'
p1627
g307
(g1491
g309
Ntp1628
Rp1629
(dp1630
g1495
g1198
sg1496
g1553
sg333
g1260
sbsS'IwGeomVec4.h'
p1631
g307
(g1491
g309
Ntp1632
Rp1633
(dp1634
g1495
g1198
sg1496
g1553
sg333
g1246
sbsS'dir.h'
p1635
g307
(g1491
g309
Ntp1636
Rp1637
(dp1638
g1495
g1503
sg1496
(lp1639
g1505
aS'stdc headers'
p1640
aS'sys'
p1641
asg333
S'c:/marmalade/7.4/s3e/h/std/sys/dir.h'
p1642
sbsS'locale.h'
p1643
g307
(g1491
g309
Ntp1644
Rp1645
(dp1646
g1495
g1503
sg1496
g1525
sg333
S'c:/marmalade/7.4/s3e/h/std/locale.h'
p1647
sbsS'vector'
p1648
g307
(g1491
g309
Ntp1649
Rp1650
(dp1651
g1495
g1503
sg1496
g1504
sg333
S'c:/marmalade/7.4/s3e/h/std/c++/vector'
p1652
sbsS'IwManaged.h'
p1653
g307
(g1491
g309
Ntp1654
Rp1655
(dp1656
g1495
g1362
sg1496
g1532
sg333
g1383
sbsS's3eCompass.h'
p1657
g307
(g1491
g309
Ntp1658
Rp1659
(dp1660
g1495
g1503
sg1496
g1519
sg333
S'c:/marmalade/7.4/s3e/h/s3eCompass.h'
p1661
sbsS'cderror.h'
p1662
g307
(g1491
g309
Ntp1663
Rp1664
(dp1665
g1495
g1063
sg1496
g1583
sg333
g1076
sbsS'climits'
p1666
g307
(g1491
g309
Ntp1667
Rp1668
(dp1669
g1495
g1503
sg1496
g1504
sg333
S'c:/marmalade/7.4/s3e/h/std/c++/climits'
p1670
sbsS'Ship.h'
p1671
g307
(g1491
g309
Ntp1672
Rp1673
(dp1674
g1495
g1107
sg1496
(lp1675
g1103
asg333
g1116
sbsS'ipc.h'
p1676
g307
(g1491
g309
Ntp1677
Rp1678
(dp1679
g1495
g1503
sg1496
g1639
sg333
S'c:/marmalade/7.4/s3e/h/std/sys/ipc.h'
p1680
sbsS'jversion.h'
p1681
g307
(g1491
g309
Ntp1682
Rp1683
(dp1684
g1495
g1063
sg1496
g1583
sg333
g1080
sbsS'fnmatch.h'
p1685
g307
(g1491
g309
Ntp1686
Rp1687
(dp1688
g1495
g1503
sg1496
g1525
sg333
S'c:/marmalade/7.4/s3e/h/std/fnmatch.h'
p1689
sbsS'IwGxState.h'
p1690
g307
(g1491
g309
Ntp1691
Rp1692
(dp1693
g1495
g1298
sg1496
g1625
sg333
g1313
sbsS's3eAudio.h'
p1694
g307
(g1491
g309
Ntp1695
Rp1696
(dp1697
g1495
g1503
sg1496
g1519
sg333
S'c:/marmalade/7.4/s3e/h/s3eAudio.h'
p1698
sbsS's3eSurface.h'
p1699
g307
(g1491
g309
Ntp1700
Rp1701
(dp1702
g1495
g1503
sg1496
g1519
sg333
S'c:/marmalade/7.4/s3e/h/s3eSurface.h'
p1703
sbsS'new'
p1704
g307
(g1491
g309
Ntp1705
Rp1706
(dp1707
g1495
g1503
sg1496
g1504
sg333
S'c:/marmalade/7.4/s3e/h/std/c++/new'
p1708
sbsS's3eWindow.h'
p1709
g307
(g1491
g309
Ntp1710
Rp1711
(dp1712
g1495
g1503
sg1496
(lp1713
g1505
aS'Extensions'
p1714
asg333
S'c:/marmalade/7.4/s3e/h/ext/s3eWindow.h'
p1715
sbsS'IwBuffer.h'
p1716
g307
(g1491
g309
Ntp1717
Rp1718
(dp1719
g1495
g1362
sg1496
g1532
sg333
g1373
sbsS'IwGeomQuat.h.tpl'
p1720
g307
(g1491
g309
Ntp1721
Rp1722
(dp1723
g1495
g1198
sg1496
g1553
sg333
g1230
sbsS's3eOSExec.h'
p1724
g307
(g1491
g309
Ntp1725
Rp1726
(dp1727
g1495
g1503
sg1496
g1713
sg333
S'c:/marmalade/7.4/s3e/h/ext/s3eOSExec.h'
p1728
sbsS'IwGxTransformSW.h'
p1729
g307
(g1491
g309
Ntp1730
Rp1731
(dp1732
g1495
g1298
sg1496
g1625
sg333
g1335
sbsS'IwGxMetrics.h'
p1733
g307
(g1491
g309
Ntp1734
Rp1735
(dp1736
g1495
g1298
sg1496
g1625
sg333
g1329
sbsS'iwgxfont.config.txt'
p1737
g307
(g1491
g309
Ntp1738
Rp1739
(dp1740
g1495
g1176
sg1496
g1497
sg333
g1179
sbsS'gl2platform.h'
p1741
g307
(g1491
g309
Ntp1742
Rp1743
(dp1744
g1495
g1503
sg1496
(lp1745
g1505
aS'GL'
p1746
aS'GLES 2.0'
p1747
asg333
S'c:/marmalade/7.4/s3e/h/GLES2/gl2platform.h'
p1748
sbsS'iw2dscenegraph.defines.txt'
p1749
g307
(g1491
g309
Ntp1750
Rp1751
(dp1752
g1495
g1140
sg1496
(lp1753
S"'Marmalade Studio'"
p1754
ag1136
asg333
g1138
sbsS'queue'
p1755
g307
(g1491
g309
Ntp1756
Rp1757
(dp1758
g1495
g1503
sg1496
g1504
sg333
S'c:/marmalade/7.4/s3e/h/std/c++/queue'
p1759
sbsS'time_1.h'
p1760
g307
(g1491
g309
Ntp1761
Rp1762
(dp1763
g1495
g1503
sg1496
g1639
sg333
S'c:/marmalade/7.4/s3e/h/std/sys/time.h'
p1764
sbsS'Iw2D.h'
p1765
g307
(g1491
g309
Ntp1766
Rp1767
(dp1768
g1495
g1164
sg1496
g1588
sg333
g1167
sbsS'IwGeomVec2.h'
p1769
g307
(g1491
g309
Ntp1770
Rp1771
(dp1772
g1495
g1198
sg1496
g1553
sg333
g1238
sbsS's3eDevice.h'
p1773
g307
(g1491
g309
Ntp1774
Rp1775
(dp1776
g1495
g1503
sg1496
g1519
sg333
S'c:/marmalade/7.4/s3e/h/s3eDevice.h'
p1777
sbsS'malloc.h'
p1778
g307
(g1491
g309
Ntp1779
Rp1780
(dp1781
g1495
g1503
sg1496
g1525
sg333
S'c:/marmalade/7.4/s3e/h/std/malloc.h'
p1782
sbsS'stdarg.h'
p1783
g307
(g1491
g309
Ntp1784
Rp1785
(dp1786
g1495
g1503
sg1496
g1525
sg333
S'c:/marmalade/7.4/s3e/h/std/stdarg.h'
p1787
sbsS'IwGeomCore.h'
p1788
g307
(g1491
g309
Ntp1789
Rp1790
(dp1791
g1495
g1198
sg1496
g1553
sg333
g1244
sbsS'Iw2DSceneGraph.h'
p1792
g307
(g1491
g309
Ntp1793
Rp1794
(dp1795
g1495
g1140
sg1496
g1753
sg333
g1146
sbsS'endian.h'
p1796
g307
(g1491
g309
Ntp1797
Rp1798
(dp1799
g1495
g1503
sg1496
g1525
sg333
S'c:/marmalade/7.4/s3e/h/std/endian.h'
p1800
sbsS'gl3ext.h'
p1801
g307
(g1491
g309
Ntp1802
Rp1803
(dp1804
g1495
g1503
sg1496
(lp1805
g1505
aS'GL'
p1806
aS'GLES 3.0'
p1807
asg333
S'c:/marmalade/7.4/s3e/h/GLES3/gl3ext.h'
p1808
sbsS'glob.h'
p1809
g307
(g1491
g309
Ntp1810
Rp1811
(dp1812
g1495
g1503
sg1496
g1525
sg333
S'c:/marmalade/7.4/s3e/h/std/glob.h'
p1813
sbsS'fstream'
p1814
g307
(g1491
g309
Ntp1815
Rp1816
(dp1817
g1495
g1503
sg1496
g1504
sg333
S'c:/marmalade/7.4/s3e/h/std/c++/fstream'
p1818
sbsS's3eCamera.h'
p1819
g307
(g1491
g309
Ntp1820
Rp1821
(dp1822
g1495
g1503
sg1496
g1519
sg333
S'c:/marmalade/7.4/s3e/h/s3eCamera.h'
p1823
sbsS'jconfig.h'
p1824
g307
(g1491
g309
Ntp1825
Rp1826
(dp1827
g1495
g1063
sg1496
g1583
sg333
g1074
sbsS'memory'
p1828
g307
(g1491
g309
Ntp1829
Rp1830
(dp1831
g1495
g1503
sg1496
g1504
sg333
S'c:/marmalade/7.4/s3e/h/std/c++/memory'
p1832
sbsS'egl.h'
p1833
g307
(g1491
g309
Ntp1834
Rp1835
(dp1836
g1495
g1503
sg1496
(lp1837
g1505
aS'GL'
p1838
aS'EGL'
p1839
asg333
S'c:/marmalade/7.4/s3e/h/EGL/egl.h'
p1840
sbsS'IwClip.inl'
p1841
g307
(g1491
g309
Ntp1842
Rp1843
(dp1844
g1495
g1298
sg1496
g1625
sg333
g1301
sbsS'IwMemManagerDL.h'
p1845
g307
(g1491
g309
Ntp1846
Rp1847
(dp1848
g1495
g1362
sg1496
g1532
sg333
g1456
sbsS'deque'
p1849
g307
(g1491
g309
Ntp1850
Rp1851
(dp1852
g1495
g1503
sg1496
g1504
sg333
S'c:/marmalade/7.4/s3e/h/std/c++/deque'
p1853
sbsS'IwString.h'
p1854
g307
(g1491
g309
Ntp1855
Rp1856
(dp1857
g1495
g1362
sg1496
g1532
sg333
g1439
sbsS'cwchar'
p1858
g307
(g1491
g309
Ntp1859
Rp1860
(dp1861
g1495
g1503
sg1496
g1504
sg333
S'c:/marmalade/7.4/s3e/h/std/c++/cwchar'
p1862
sbsS'iwutil.mkf'
p1863
g307
(g1491
g309
Ntp1864
Rp1865
(dp1866
g1495
g1445
sg1496
g1532
sg333
g1443
sbsS'csignal'
p1867
g307
(g1491
g309
Ntp1868
Rp1869
(dp1870
g1495
g1503
sg1496
g1504
sg333
S'c:/marmalade/7.4/s3e/h/std/c++/csignal'
p1871
sbsS'float.h'
p1872
g307
(g1491
g309
Ntp1873
Rp1874
(dp1875
g1495
g1503
sg1496
g1525
sg333
S'c:/marmalade/7.4/s3e/h/std/float.h'
p1876
sbsS'pthread_alloc'
p1877
g307
(g1491
g309
Ntp1878
Rp1879
(dp1880
g1495
g1503
sg1496
g1504
sg333
S'c:/marmalade/7.4/s3e/h/std/c++/pthread_alloc'
p1881
sbsS'getopt.h'
p1882
g307
(g1491
g309
Ntp1883
Rp1884
(dp1885
g1495
g1503
sg1496
g1525
sg333
S'c:/marmalade/7.4/s3e/h/std/getopt.h'
p1886
sbsS'IwOptimiseARM.h'
p1887
g307
(g1491
g309
Ntp1888
Rp1889
(dp1890
g1495
g1362
sg1496
g1532
sg333
g1415
sbsS'times.h'
p1891
g307
(g1491
g309
Ntp1892
Rp1893
(dp1894
g1495
g1503
sg1496
g1639
sg333
S'c:/marmalade/7.4/s3e/h/std/sys/times.h'
p1895
sbsS'IwGeomFSphere.h'
p1896
g307
(g1491
g309
Ntp1897
Rp1898
(dp1899
g1495
g1198
sg1496
g1553
sg333
g1208
sbsS'IwTypes.h'
p1900
g307
(g1491
g309
Ntp1901
Rp1902
(dp1903
g1495
g1362
sg1496
g1532
sg333
g1397
sbsS'unistd.h'
p1904
g307
(g1491
g309
Ntp1905
Rp1906
(dp1907
g1495
g1503
sg1496
g1525
sg333
S'c:/marmalade/7.4/s3e/h/std/unistd.h'
p1908
sbsS's3eCompression.h'
p1909
g307
(g1491
g309
Ntp1910
Rp1911
(dp1912
g1495
g1503
sg1496
g1519
sg333
S'c:/marmalade/7.4/s3e/h/s3eCompression.h'
p1913
sbsS'langinfo.h'
p1914
g307
(g1491
g309
Ntp1915
Rp1916
(dp1917
g1495
g1503
sg1496
g1525
sg333
S'c:/marmalade/7.4/s3e/h/std/langinfo.h'
p1918
sbsS's3edebugHeap.h'
p1919
g307
(g1491
g309
Ntp1920
Rp1921
(dp1922
g1495
g1503
sg1496
g1713
sg333
S'c:/marmalade/7.4/s3e/h/ext/s3edebugHeap.h'
p1923
sbsS'AirplayVersion.h'
p1924
g307
(g1491
g309
Ntp1925
Rp1926
(dp1927
g1495
g1503
sg1496
g1519
sg333
S'c:/marmalade/7.4/s3e/h/AirplayVersion.h'
p1928
sbsS'gl2extimg.h'
p1929
g307
(g1491
g309
Ntp1930
Rp1931
(dp1932
g1495
g1503
sg1496
g1745
sg333
S'c:/marmalade/7.4/s3e/h/GLES2/gl2extimg.h'
p1933
sbsS'app.config.txt'
p1934
g307
(g1491
g309
Ntp1935
Rp1936
(dp1937
g1495
(dp1938
sg1496
g4
sg333
S'c:/Users/Ahmed Saleh/Documents/spaceinvader/data/app.config.txt'
p1939
sbsS'IwGeomSqrt.h'
p1940
g307
(g1491
g309
Ntp1941
Rp1942
(dp1943
g1495
g1198
sg1496
g1553
sg333
g1268
sbsS'tiniconv_int.h'
p1944
g307
(g1491
g309
Ntp1945
Rp1946
(dp1947
g1495
g1097
sg1496
(lp1948
g1093
asg333
g1095
sbsS'syslog.h'
p1949
g307
(g1491
g309
Ntp1950
Rp1951
(dp1952
g1495
g1503
sg1496
g1525
sg333
S'c:/marmalade/7.4/s3e/h/std/syslog.h'
p1953
sbsS'IwGxFontTypes.h'
p1954
g307
(g1491
g309
Ntp1955
Rp1956
(dp1957
g1495
g1176
sg1496
g1497
sg333
g1183
sbsS'IwGeomFIntersect.h'
p1958
g307
(g1491
g309
Ntp1959
Rp1960
(dp1961
g1495
g1198
sg1496
g1553
sg333
g1199
sbsS'hash_map'
p1962
g307
(g1491
g309
Ntp1963
Rp1964
(dp1965
g1495
g1503
sg1496
g1504
sg333
S'c:/marmalade/7.4/s3e/h/std/c++/hash_map'
p1966
sbsS's3e.mkf'
p1967
g307
(g1491
g309
Ntp1968
Rp1969
(dp1970
g1495
(dp1971
sg1496
g1519
sg333
S'c:/marmalade/7.4/s3e/s3e.mkf'
p1972
sbsS'IwGeomMat2D.h.tpl'
p1973
g307
(g1491
g309
Ntp1974
Rp1975
(dp1976
g1495
g1198
sg1496
g1553
sg333
g1201
sbsS's3eOSReadString.h'
p1977
g307
(g1491
g309
Ntp1978
Rp1979
(dp1980
g1495
g1503
sg1496
g1713
sg333
S'c:/marmalade/7.4/s3e/h/ext/s3eOSReadString.h'
p1981
sbsS'map'
p1982
g307
(g1491
g309
Ntp1983
Rp1984
(dp1985
g1495
g1503
sg1496
g1504
sg333
S'c:/marmalade/7.4/s3e/h/std/c++/map'
p1986
sbsS'iwtween.mkf'
p1987
g307
(g1491
g309
Ntp1988
Rp1989
(dp1990
g1495
g1482
sg1496
(lp1991
g1473
asg333
g1480
sbsS'IwOptimiseSpeed.h'
p1992
g307
(g1491
g309
Ntp1993
Rp1994
(dp1995
g1495
g1362
sg1496
g1532
sg333
g1425
sbsS'msl_string.h'
p1996
g307
(g1491
g309
Ntp1997
Rp1998
(dp1999
g1495
g1503
sg1496
g1504
sg333
S'c:/marmalade/7.4/s3e/h/std/c++/msl_string.h'
p2000
sbsS'select.h'
p2001
g307
(g1491
g309
Ntp2002
Rp2003
(dp2004
g1495
g1503
sg1496
g1639
sg333
S'c:/marmalade/7.4/s3e/h/std/sys/select.h'
p2005
sbsS'zlib.mkf'
p2006
g307
(g1491
g309
Ntp2007
Rp2008
(dp2009
g1495
g1472
sg1496
(lp2010
g1462
asg333
g1470
sbsS'signal.h'
p2011
g307
(g1491
g309
Ntp2012
Rp2013
(dp2014
g1495
g1503
sg1496
g1525
sg333
S'c:/marmalade/7.4/s3e/h/std/signal.h'
p2015
sbsS'sigcontext.h'
p2016
g307
(g1491
g309
Ntp2017
Rp2018
(dp2019
g1495
g1503
sg1496
g1525
sg333
S'c:/marmalade/7.4/s3e/h/std/sigcontext.h'
p2020
sbsS'libpng.mkf'
p2021
g307
(g1491
g309
Ntp2022
Rp2023
(dp2024
g1495
g1057
sg1496
(lp2025
g1046
asg333
g1055
sbsS's3eClipboard.h'
p2026
g307
(g1491
g309
Ntp2027
Rp2028
(dp2029
g1495
g1503
sg1496
g1519
sg333
S'c:/marmalade/7.4/s3e/h/s3eClipboard.h'
p2030
sbsS'IwGxFuncTable.h'
p2031
g307
(g1491
g309
Ntp2032
Rp2033
(dp2034
g1495
g1298
sg1496
g1625
sg333
g1299
sbsS'IwResHandlerGROUP.h'
p2035
g307
(g1491
g309
Ntp2036
Rp2037
(dp2038
g1495
g1274
sg1496
(lp2039
g1134
ag1270
asg333
g1281
sbsS's3eDebug.h'
p2040
g307
(g1491
g309
Ntp2041
Rp2042
(dp2043
g1495
g1503
sg1496
g1519
sg333
S'c:/marmalade/7.4/s3e/h/s3eDebug.h'
p2044
sbsS'socket.h'
p2045
g307
(g1491
g309
Ntp2046
Rp2047
(dp2048
g1495
g1503
sg1496
g1639
sg333
S'c:/marmalade/7.4/s3e/h/std/sys/socket.h'
p2049
sbsS'glext.h'
p2050
g307
(g1491
g309
Ntp2051
Rp2052
(dp2053
g1495
g1503
sg1496
(lp2054
g1505
aS'GL'
p2055
aS'GLES 1.x'
p2056
asg333
S'c:/marmalade/7.4/s3e/h/GLES/glext.h'
p2057
sbsS'typeinfo.h'
p2058
g307
(g1491
g309
Ntp2059
Rp2060
(dp2061
g1495
g1503
sg1496
g1504
sg333
S'c:/marmalade/7.4/s3e/h/std/c++/typeinfo.h'
p2062
sbsS'typeinfo'
p2063
g307
(g1491
g309
Ntp2064
Rp2065
(dp2066
g1495
g1503
sg1496
g1504
sg333
S'c:/marmalade/7.4/s3e/h/std/c++/typeinfo'
p2067
sbsS'spaceinvader.cpp'
p2068
g307
(g1491
g309
Ntp2069
Rp2070
(dp2071
g1495
g1107
sg1496
g1675
sg333
g1108
sbsS'fstream.h'
p2072
g307
(g1491
g309
Ntp2073
Rp2074
(dp2075
g1495
g1503
sg1496
g1504
sg333
S'c:/marmalade/7.4/s3e/h/std/c++/fstream.h'
p2076
sbsS's3ePointer.h'
p2077
g307
(g1491
g309
Ntp2078
Rp2079
(dp2080
g1495
g1503
sg1496
g1519
sg333
S'c:/marmalade/7.4/s3e/h/s3ePointer.h'
p2081
sbsS'IwMemBucket.h'
p2082
g307
(g1491
g309
Ntp2083
Rp2084
(dp2085
g1495
g1362
sg1496
g1532
sg333
g1421
sbsS'PVRTexTool.h'
p2086
g307
(g1491
g309
Ntp2087
Rp2088
(dp2089
g1495
g1126
sg1496
(lp2090
g1118
ag1120
asg333
g1132
sbsS's3eGL.h'
p2091
g307
(g1491
g309
Ntp2092
Rp2093
(dp2094
g1495
g1503
sg1496
g1519
sg333
S'c:/marmalade/7.4/s3e/h/s3eGL.h'
p2095
sbsS'Scene.h'
p2096
g307
(g1491
g309
Ntp2097
Rp2098
(dp2099
g1495
g1107
sg1496
g1675
sg333
g1112
sbsS'IwGeomFVec2.h'
p2100
g307
(g1491
g309
Ntp2101
Rp2102
(dp2103
g1495
g1198
sg1496
g1553
sg333
g1224
sbsS'IwGeomSVec4.h'
p2104
g307
(g1491
g309
Ntp2105
Rp2106
(dp2107
g1495
g1198
sg1496
g1553
sg333
g1222
sbsS'poll.h'
p2108
g307
(g1491
g309
Ntp2109
Rp2110
(dp2111
g1495
g1503
sg1496
g1525
sg333
S'c:/marmalade/7.4/s3e/h/std/poll.h'
p2112
sbsS'IwMatAnim.h'
p2113
g307
(g1491
g309
Ntp2114
Rp2115
(dp2116
g1495
g1298
sg1496
g1625
sg333
g1323
sbsS'PVRTexTool.defines.txt'
p2117
g307
(g1491
g309
Ntp2118
Rp2119
(dp2120
g1495
g1126
sg1496
(lp2121
g1118
ag1120
ag1122
asg333
g1127
sbsS'IwGx.h'
p2122
g307
(g1491
g309
Ntp2123
Rp2124
(dp2125
g1495
g1298
sg1496
g1625
sg333
g1305
sbsS'valarray'
p2126
g307
(g1491
g309
Ntp2127
Rp2128
(dp2129
g1495
g1503
sg1496
g1504
sg333
S'c:/marmalade/7.4/s3e/h/std/c++/valarray'
p2130
sbsS'iosfwd'
p2131
g307
(g1491
g309
Ntp2132
Rp2133
(dp2134
g1495
g1503
sg1496
g1504
sg333
S'c:/marmalade/7.4/s3e/h/std/c++/iosfwd'
p2135
sbsS'gl2.h'
p2136
g307
(g1491
g309
Ntp2137
Rp2138
(dp2139
g1495
g1503
sg1496
g1745
sg333
S'c:/marmalade/7.4/s3e/h/GLES2/gl2.h'
p2140
sbsS'IwManagedList.h'
p2141
g307
(g1491
g309
Ntp2142
Rp2143
(dp2144
g1495
g1362
sg1496
g1532
sg333
g1389
sbsS'stdiostream.h'
p2145
g307
(g1491
g309
Ntp2146
Rp2147
(dp2148
g1495
g1503
sg1496
g1504
sg333
S'c:/marmalade/7.4/s3e/h/std/c++/stdiostream.h'
p2149
sbsS'mem.h'
p2150
g307
(g1491
g309
Ntp2151
Rp2152
(dp2153
g1495
g1503
sg1496
g1504
sg333
S'c:/marmalade/7.4/s3e/h/std/c++/mem.h'
p2154
sbsS'jerror.h'
p2155
g307
(g1491
g309
Ntp2156
Rp2157
(dp2158
g1495
g1063
sg1496
g1583
sg333
g1061
sbsS'zconf.h'
p2159
g307
(g1491
g309
Ntp2160
Rp2161
(dp2162
g1495
g1467
sg1496
(lp2163
g1462
ag1048
asg333
g1465
sbsS's3e.config.txt'
p2164
g307
(g1491
g309
Ntp2165
Rp2166
(dp2167
g1495
g1503
sg1496
g1519
sg333
S'c:/marmalade/7.4/s3e/s3e.config.txt'
p2168
sbsS'numeric'
p2169
g307
(g1491
g309
Ntp2170
Rp2171
(dp2172
g1495
g1503
sg1496
g1504
sg333
S'c:/marmalade/7.4/s3e/h/std/c++/numeric'
p2173
sbsS'utime.h'
p2174
g307
(g1491
g309
Ntp2175
Rp2176
(dp2177
g1495
g1503
sg1496
g1525
sg333
S'c:/marmalade/7.4/s3e/h/std/utime.h'
p2178
sbsS'jdhuff.h'
p2179
g307
(g1491
g309
Ntp2180
Rp2181
(dp2182
g1495
g1063
sg1496
g1583
sg333
g1084
sbsS'IwGxStream.h'
p2183
g307
(g1491
g309
Ntp2184
Rp2185
(dp2186
g1495
g1298
sg1496
g1625
sg333
g1325
sbsS'IwImage.h'
p2187
g307
(g1491
g309
Ntp2188
Rp2189
(dp2190
g1495
g1362
sg1496
g1532
sg333
g1417
sbsS's3eImagePicker.h'
p2191
g307
(g1491
g309
Ntp2192
Rp2193
(dp2194
g1495
g1503
sg1496
g1713
sg333
S'c:/marmalade/7.4/s3e/h/ext/s3eImagePicker.h'
p2195
sbsS'stdlib.h'
p2196
g307
(g1491
g309
Ntp2197
Rp2198
(dp2199
g1495
g1503
sg1496
g1525
sg333
S'c:/marmalade/7.4/s3e/h/std/stdlib.h'
p2200
sbsS'IwCopyingPtr.h'
p2201
g307
(g1491
g309
Ntp2202
Rp2203
(dp2204
g1495
g1362
sg1496
g1532
sg333
g1367
sbsS'iostream'
p2205
g307
(g1491
g309
Ntp2206
Rp2207
(dp2208
g1495
g1503
sg1496
g1504
sg333
S'c:/marmalade/7.4/s3e/h/std/c++/iostream'
p2209
sbsS'png.h'
p2210
g307
(g1491
g309
Ntp2211
Rp2212
(dp2213
g1495
g1052
sg1496
(lp2214
g1046
ag1048
asg333
g1050
sbsS'stddef.h'
p2215
g307
(g1491
g309
Ntp2216
Rp2217
(dp2218
g1495
g1503
sg1496
g1525
sg333
S'c:/marmalade/7.4/s3e/h/std/stddef.h'
p2219
sbsS'setjmp_win32.h'
p2220
g307
(g1491
g309
Ntp2221
Rp2222
(dp2223
g1495
g1503
sg1496
g1525
sg333
S'c:/marmalade/7.4/s3e/h/std/setjmp_win32.h'
p2224
sbsS'IwGxPrint.h'
p2225
g307
(g1491
g309
Ntp2226
Rp2227
(dp2228
g1495
g1298
sg1496
g1625
sg333
g1303
sbsS'iwgx_public.defines.txt'
p2229
g307
(g1491
g309
Ntp2230
Rp2231
(dp2232
g1495
g1298
sg1496
g1625
sg333
g1340
sbsS'streambuf.h'
p2233
g307
(g1491
g309
Ntp2234
Rp2235
(dp2236
g1495
g1503
sg1496
g1504
sg333
S'c:/marmalade/7.4/s3e/h/std/c++/streambuf.h'
p2237
sbsS'IwGeomFPlane.h'
p2238
g307
(g1491
g309
Ntp2239
Rp2240
(dp2241
g1495
g1198
sg1496
g1553
sg333
g1264
sbsS'wchar.h'
p2242
g307
(g1491
g309
Ntp2243
Rp2244
(dp2245
g1495
g1503
sg1496
g1525
sg333
S'c:/marmalade/7.4/s3e/h/std/wchar.h'
p2246
sbsS's3eCameraCapture.h'
p2247
g307
(g1491
g309
Ntp2248
Rp2249
(dp2250
g1495
g1503
sg1496
g1713
sg333
S'c:/marmalade/7.4/s3e/h/ext/s3eCameraCapture.h'
p2251
sbsS'eglext.h'
p2252
g307
(g1491
g309
Ntp2253
Rp2254
(dp2255
g1495
g1503
sg1496
g1837
sg333
S'c:/marmalade/7.4/s3e/h/EGL/eglext.h'
p2256
sbsS'IwResHandlerImage.h'
p2257
g307
(g1491
g309
Ntp2258
Rp2259
(dp2260
g1495
g1274
sg1496
g2039
sg333
g1286
sbsS'strstream.h'
p2261
g307
(g1491
g309
Ntp2262
Rp2263
(dp2264
g1495
g1503
sg1496
g1504
sg333
S'c:/marmalade/7.4/s3e/h/std/c++/strstream.h'
p2265
sbsS'tiniconv.h'
p2266
g307
(g1491
g309
Ntp2267
Rp2268
(dp2269
g1495
g1097
sg1496
g1948
sg333
g1101
sbsS'IwGLExt.h'
p2270
g307
(g1491
g309
Ntp2271
Rp2272
(dp2273
g1495
g1155
sg1496
g1513
sg333
g1158
sbsS'app.icf'
p2274
g307
(g1491
g309
Ntp2275
Rp2276
(dp2277
g1495
(dp2278
sg1496
g4
sg333
S'c:/Users/Ahmed Saleh/Documents/spaceinvader/data/app.icf'
p2279
sbsS'IwClassFactory.h'
p2280
g307
(g1491
g309
Ntp2281
Rp2282
(dp2283
g1495
g1362
sg1496
g1532
sg333
g1395
sbsS'file.h'
p2284
g307
(g1491
g309
Ntp2285
Rp2286
(dp2287
g1495
g1503
sg1496
g1639
sg333
S'c:/marmalade/7.4/s3e/h/std/sys/file.h'
p2288
sbsS'cstring'
p2289
g307
(g1491
g309
Ntp2290
Rp2291
(dp2292
g1495
g1503
sg1496
g1504
sg333
S'c:/marmalade/7.4/s3e/h/std/c++/cstring'
p2293
sbsS'iwutil.config.txt'
p2294
g307
(g1491
g309
Ntp2295
Rp2296
(dp2297
g1495
g1362
sg1496
g1532
sg333
g1429
sbsS's3eSMS.h'
p2298
g307
(g1491
g309
Ntp2299
Rp2300
(dp2301
g1495
g1503
sg1496
g1713
sg333
S'c:/marmalade/7.4/s3e/h/ext/s3eSMS.h'
p2302
sbsS'limits.h'
p2303
g307
(g1491
g309
Ntp2304
Rp2305
(dp2306
g1495
g1503
sg1496
g1525
sg333
S'c:/marmalade/7.4/s3e/h/std/limits.h'
p2307
sbsS'iwgl.config.txt'
p2308
g307
(g1491
g309
Ntp2309
Rp2310
(dp2311
g1495
g1155
sg1496
g1513
sg333
g1153
sbsS'IwMaterial.h'
p2312
g307
(g1491
g309
Ntp2313
Rp2314
(dp2315
g1495
g1298
sg1496
g1625
sg333
g1319
sbsS'PVRTexTool_interface.cpp'
p2316
g307
(g1491
g309
Ntp2317
Rp2318
(dp2319
g1495
g1126
sg1496
g2121
sg333
g1124
sbsS'IwGxSurface.h'
p2320
g307
(g1491
g309
Ntp2321
Rp2322
(dp2323
g1495
g1298
sg1496
g1625
sg333
g1346
sbsS's3eSocket.h'
p2324
g307
(g1491
g309
Ntp2325
Rp2326
(dp2327
g1495
g1503
sg1496
g1519
sg333
S'c:/marmalade/7.4/s3e/h/s3eSocket.h'
p2328
sbsS'IwAutoFile.h'
p2329
g307
(g1491
g309
Ntp2330
Rp2331
(dp2332
g1495
g1362
sg1496
g1532
sg333
g1448
sbsS's3eVibra.h'
p2333
g307
(g1491
g309
Ntp2334
Rp2335
(dp2336
g1495
g1503
sg1496
g1519
sg333
S'c:/marmalade/7.4/s3e/h/s3eVibra.h'
p2337
sbsS'poll_1.h'
p2338
g307
(g1491
g309
Ntp2339
Rp2340
(dp2341
g1495
g1503
sg1496
g1639
sg333
S'c:/marmalade/7.4/s3e/h/std/sys/poll.h'
p2342
sbsS's3eThread.h'
p2343
g307
(g1491
g309
Ntp2344
Rp2345
(dp2346
g1495
g1503
sg1496
g1519
sg333
S'c:/marmalade/7.4/s3e/h/s3eThread.h'
p2347
sbsS'ucontext.h'
p2348
g307
(g1491
g309
Ntp2349
Rp2350
(dp2351
g1495
g1503
sg1496
g1525
sg333
S'c:/marmalade/7.4/s3e/h/std/ucontext.h'
p2352
sbsS'time.h'
p2353
g307
(g1491
g309
Ntp2354
Rp2355
(dp2356
g1495
g1503
sg1496
g1525
sg333
S'c:/marmalade/7.4/s3e/h/std/time.h'
p2357
sbsS'jchuff.h'
p2358
g307
(g1491
g309
Ntp2359
Rp2360
(dp2361
g1495
g1063
sg1496
g1583
sg333
g1066
sbsS's3eSoundRecord.h'
p2362
g307
(g1491
g309
Ntp2363
Rp2364
(dp2365
g1495
g1503
sg1496
g1519
sg333
S'c:/marmalade/7.4/s3e/h/s3eSoundRecord.h'
p2366
sbsS'IwFibre.h'
p2367
g307
(g1491
g309
Ntp2368
Rp2369
(dp2370
g1495
g1362
sg1496
g1532
sg333
g1437
sbsS's3eVersion.h'
p2371
g307
(g1491
g309
Ntp2372
Rp2373
(dp2374
g1495
g1503
sg1496
g1519
sg333
S'c:/marmalade/7.4/s3e/h/s3eVersion.h'
p2375
sbsS'IwGxFontGlyph.h'
p2376
g307
(g1491
g309
Ntp2377
Rp2378
(dp2379
g1495
g1176
sg1496
g1497
sg333
g1177
sbsS's3eTypes.h'
p2380
g307
(g1491
g309
Ntp2381
Rp2382
(dp2383
g1495
g1503
sg1496
g1519
sg333
S'c:/marmalade/7.4/s3e/h/s3eTypes.h'
p2384
sbsS'signal_2.h'
p2385
g307
(g1491
g309
Ntp2386
Rp2387
(dp2388
g1495
g1503
sg1496
g1504
sg333
S'c:/marmalade/7.4/s3e/h/std/c++/signal.h'
p2389
sbsS'termios.h'
p2390
g307
(g1491
g309
Ntp2391
Rp2392
(dp2393
g1495
g1503
sg1496
g1525
sg333
S'c:/marmalade/7.4/s3e/h/std/termios.h'
p2394
sbsS'iw2dscenegraph.mkf'
p2395
g307
(g1491
g309
Ntp2396
Rp2397
(dp2398
g1495
g1145
sg1496
g1753
sg333
g1143
sbsS'slist'
p2399
g307
(g1491
g309
Ntp2400
Rp2401
(dp2402
g1495
g1503
sg1496
g1504
sg333
S'c:/marmalade/7.4/s3e/h/std/c++/slist'
p2403
sbsS'cstdlib'
p2404
g307
(g1491
g309
Ntp2405
Rp2406
(dp2407
g1495
g1503
sg1496
g1504
sg333
S'c:/marmalade/7.4/s3e/h/std/c++/cstdlib'
p2408
sbsS's3eLocation.h'
p2409
g307
(g1491
g309
Ntp2410
Rp2411
(dp2412
g1495
g1503
sg1496
g1519
sg333
S'c:/marmalade/7.4/s3e/h/s3eLocation.h'
p2413
sbsS'IwMemBucketHelpers.h'
p2414
g307
(g1491
g309
Ntp2415
Rp2416
(dp2417
g1495
g1362
sg1496
g1532
sg333
g1409
sbsS's3eHash.h'
p2418
g307
(g1491
g309
Ntp2419
Rp2420
(dp2421
g1495
g1503
sg1496
g1519
sg333
S'c:/marmalade/7.4/s3e/h/s3eHash.h'
p2422
sbsS'IwGeomFMat.h'
p2423
g307
(g1491
g309
Ntp2424
Rp2425
(dp2426
g1495
g1198
sg1496
g1553
sg333
g1266
sbsS'type_traits.h'
p2427
g307
(g1491
g309
Ntp2428
Rp2429
(dp2430
g1495
g1503
sg1496
g1504
sg333
S'c:/marmalade/7.4/s3e/h/std/c++/type_traits.h'
p2431
sbsS'IwMenu.h'
p2432
g307
(g1491
g309
Ntp2433
Rp2434
(dp2435
g1495
g1362
sg1496
g1532
sg333
g1363
sbsS'IwResHandlerITX.h'
p2436
g307
(g1491
g309
Ntp2437
Rp2438
(dp2439
g1495
g1274
sg1496
g2039
sg333
g1277
sbsS'IwArray.h'
p2440
g307
(g1491
g309
Ntp2441
Rp2442
(dp2443
g1495
g1362
sg1496
g1532
sg333
g1427
sbsS'IwUTF8.h'
p2444
g307
(g1491
g309
Ntp2445
Rp2446
(dp2447
g1495
g1362
sg1496
g1532
sg333
g1431
sbsS'math_rvct.h'
p2448
g307
(g1491
g309
Ntp2449
Rp2450
(dp2451
g1495
g1503
sg1496
g1525
sg333
S'c:/marmalade/7.4/s3e/h/std/math_rvct.h'
p2452
sbsS'IwUtil.h'
p2453
g307
(g1491
g309
Ntp2454
Rp2455
(dp2456
g1495
g1362
sg1496
g1532
sg333
g1452
sbsS'IwFColour.h'
p2457
g307
(g1491
g309
Ntp2458
Rp2459
(dp2460
g1495
g1298
sg1496
g1625
sg333
g1309
sbsS'wctype.h'
p2461
g307
(g1491
g309
Ntp2462
Rp2463
(dp2464
g1495
g1503
sg1496
g1525
sg333
S'c:/marmalade/7.4/s3e/h/std/wctype.h'
p2465
sbsS'cstddef'
p2466
g307
(g1491
g309
Ntp2467
Rp2468
(dp2469
g1495
g1503
sg1496
g1504
sg333
S'c:/marmalade/7.4/s3e/h/std/c++/cstddef'
p2470
sbsS'assert.h'
p2471
g307
(g1491
g309
Ntp2472
Rp2473
(dp2474
g1495
g1503
sg1496
g1525
sg333
S'c:/marmalade/7.4/s3e/h/std/assert.h'
p2475
sbsS'mman.h'
p2476
g307
(g1491
g309
Ntp2477
Rp2478
(dp2479
g1495
g1503
sg1496
g1639
sg333
S'c:/marmalade/7.4/s3e/h/std/sys/mman.h'
p2480
sbsS'IwRandom.h'
p2481
g307
(g1491
g309
Ntp2482
Rp2483
(dp2484
g1495
g1362
sg1496
g1532
sg333
g1375
sbsS'libgen.h'
p2485
g307
(g1491
g309
Ntp2486
Rp2487
(dp2488
g1495
g1503
sg1496
g1525
sg333
S'c:/marmalade/7.4/s3e/h/std/libgen.h'
p2489
sbsS'utsname.h'
p2490
g307
(g1491
g309
Ntp2491
Rp2492
(dp2493
g1495
g1503
sg1496
g1639
sg333
S'c:/marmalade/7.4/s3e/h/std/sys/utsname.h'
p2494
sbsS'wait.h'
p2495
g307
(g1491
g309
Ntp2496
Rp2497
(dp2498
g1495
g1503
sg1496
g1639
sg333
S'c:/marmalade/7.4/s3e/h/std/sys/wait.h'
p2499
sbsS'param.h'
p2500
g307
(g1491
g309
Ntp2501
Rp2502
(dp2503
g1495
g1503
sg1496
g1639
sg333
S'c:/marmalade/7.4/s3e/h/std/sys/param.h'
p2504
sbsS'IwDivide.h'
p2505
g307
(g1491
g309
Ntp2506
Rp2507
(dp2508
g1495
g1362
sg1496
g1532
sg333
g1423
sbsS'Iw2DSceneGraphCore.cpp'
p2509
g307
(g1491
g309
Ntp2510
Rp2511
(dp2512
g1495
g1355
sg1496
(lp2513
S"'Marmalade Studio'"
p2514
ag1348
asg333
g1353
sbsS'IwResManager.h'
p2515
g307
(g1491
g309
Ntp2516
Rp2517
(dp2518
g1495
g1274
sg1496
g2039
sg333
g1275
sbsS'ostream'
p2519
g307
(g1491
g309
Ntp2520
Rp2521
(dp2522
g1495
g1503
sg1496
g1504
sg333
S'c:/marmalade/7.4/s3e/h/std/c++/ostream'
p2523
sbsS'cwctype'
p2524
g307
(g1491
g309
Ntp2525
Rp2526
(dp2527
g1495
g1503
sg1496
g1504
sg333
S'c:/marmalade/7.4/s3e/h/std/c++/cwctype'
p2528
sbsS'set'
p2529
g307
(g1491
g309
Ntp2530
Rp2531
(dp2532
g1495
g1503
sg1496
g1504
sg333
S'c:/marmalade/7.4/s3e/h/std/c++/set'
p2533
sbsS'IwGeomSQuat.h'
p2534
g307
(g1491
g309
Ntp2535
Rp2536
(dp2537
g1495
g1198
sg1496
g1553
sg333
g1242
sbsS'locale'
p2538
g307
(g1491
g309
Ntp2539
Rp2540
(dp2541
g1495
g1503
sg1496
g1504
sg333
S'c:/marmalade/7.4/s3e/h/std/c++/locale'
p2542
sbsS'cstdio'
p2543
g307
(g1491
g309
Ntp2544
Rp2545
(dp2546
g1495
g1503
sg1496
g1504
sg333
S'c:/marmalade/7.4/s3e/h/std/c++/cstdio'
p2547
sbsS'cdjpeg.h'
p2548
g307
(g1491
g309
Ntp2549
Rp2550
(dp2551
g1495
g1063
sg1496
g1583
sg333
g1070
sbsS'IwList.h'
p2552
g307
(g1491
g309
Ntp2553
Rp2554
(dp2555
g1495
g1362
sg1496
g1532
sg333
g1391
sbsS'inttypes.h'
p2556
g307
(g1491
g309
Ntp2557
Rp2558
(dp2559
g1495
g1503
sg1496
g1525
sg333
S'c:/marmalade/7.4/s3e/h/std/inttypes.h'
p2560
sbsS'dirent.h'
p2561
g307
(g1491
g309
Ntp2562
Rp2563
(dp2564
g1495
g1503
sg1496
g1525
sg333
S'c:/marmalade/7.4/s3e/h/std/dirent.h'
p2565
sbsS'IwGeomVec3.h'
p2566
g307
(g1491
g309
Ntp2567
Rp2568
(dp2569
g1495
g1198
sg1496
g1553
sg333
g1236
sbsS'transupp.h'
p2570
g307
(g1491
g309
Ntp2571
Rp2572
(dp2573
g1495
g1063
sg1496
g1583
sg333
g1082
sbsS'IwMath.h'
p2574
g307
(g1491
g309
Ntp2575
Rp2576
(dp2577
g1495
g1362
sg1496
g1532
sg333
g1435
sbsS'IwGeomQuat.h'
p2578
g307
(g1491
g309
Ntp2579
Rp2580
(dp2581
g1495
g1198
sg1496
g1553
sg333
g1218
sbsS'glplatform.h'
p2582
g307
(g1491
g309
Ntp2583
Rp2584
(dp2585
g1495
g1503
sg1496
g2054
sg333
S'c:/marmalade/7.4/s3e/h/GLES/glplatform.h'
p2586
sbsS's3e-default.mkf'
p2587
g307
(g1491
g309
Ntp2588
Rp2589
(dp2590
g1495
g1487
sg1496
(lp2591
g1483
asg333
g1485
sbsS'bitset'
p2592
g307
(g1491
g309
Ntp2593
Rp2594
(dp2595
g1495
g1503
sg1496
g1504
sg333
S'c:/marmalade/7.4/s3e/h/std/c++/bitset'
p2596
sbsS'alloca.h'
p2597
g307
(g1491
g309
Ntp2598
Rp2599
(dp2600
g1495
g1503
sg1496
g1525
sg333
S'c:/marmalade/7.4/s3e/h/std/alloca.h'
p2601
sbsS'IwResHandler.h'
p2602
g307
(g1491
g309
Ntp2603
Rp2604
(dp2605
g1495
g1274
sg1496
g2039
sg333
g1288
sbsS'IwResHandlerMTL.h'
p2606
g307
(g1491
g309
Ntp2607
Rp2608
(dp2609
g1495
g1298
sg1496
g1625
sg333
g1327
sbsS'IwRuntime.h'
p2610
g307
(g1491
g309
Ntp2611
Rp2612
(dp2613
g1495
g1362
sg1496
g1532
sg333
g1407
sbsS'limits'
p2614
g307
(g1491
g309
Ntp2615
Rp2616
(dp2617
g1495
g1503
sg1496
g1504
sg333
S'c:/marmalade/7.4/s3e/h/std/c++/limits'
p2618
sbsS'IwGeomBBox.h'
p2619
g307
(g1491
g309
Ntp2620
Rp2621
(dp2622
g1495
g1198
sg1496
g1553
sg333
g1248
sbsS's3eContacts.h'
p2623
g307
(g1491
g309
Ntp2624
Rp2625
(dp2626
g1495
g1503
sg1496
g1519
sg333
S'c:/marmalade/7.4/s3e/h/s3eContacts.h'
p2627
sbsS's3eLicense.h'
p2628
g307
(g1491
g309
Ntp2629
Rp2630
(dp2631
g1495
g1503
sg1496
g1519
sg333
S'c:/marmalade/7.4/s3e/h/s3eLicense.h'
p2632
sbsS'iwgx.config.txt'
p2633
g307
(g1491
g309
Ntp2634
Rp2635
(dp2636
g1495
g1298
sg1496
g1625
sg333
g1333
sbsS'IwTextParser.h'
p2637
g307
(g1491
g309
Ntp2638
Rp2639
(dp2640
g1495
g1362
sg1496
g1532
sg333
g1360
sbsS's3eTimer.h'
p2641
g307
(g1491
g309
Ntp2642
Rp2643
(dp2644
g1495
g1503
sg1496
g1519
sg333
S'c:/marmalade/7.4/s3e/h/s3eTimer.h'
p2645
sbsS'IwGeomVec.h'
p2646
g307
(g1491
g309
Ntp2647
Rp2648
(dp2649
g1495
g1198
sg1496
g1553
sg333
g1226
sbsS'IwSerialise.h'
p2650
g307
(g1491
g309
Ntp2651
Rp2652
(dp2653
g1495
g1362
sg1496
g1532
sg333
g1393
sbsS'cstdarg'
p2654
g307
(g1491
g309
Ntp2655
Rp2656
(dp2657
g1495
g1503
sg1496
g1504
sg333
S'c:/marmalade/7.4/s3e/h/std/c++/cstdarg'
p2658
sbsS'gl2ext.h'
p2659
g307
(g1491
g309
Ntp2660
Rp2661
(dp2662
g1495
g1503
sg1496
g1745
sg333
S'c:/marmalade/7.4/s3e/h/GLES2/gl2ext.h'
p2663
sbsS'IwChar.h'
p2664
g307
(g1491
g309
Ntp2665
Rp2666
(dp2667
g1495
g1362
sg1496
g1532
sg333
g1413
sbsS's3eSound.h'
p2668
g307
(g1491
g309
Ntp2669
Rp2670
(dp2671
g1495
g1503
sg1496
g1519
sg333
S'c:/marmalade/7.4/s3e/h/s3eSound.h'
p2672
sbsS'IwOptimiseThumb.h'
p2673
g307
(g1491
g309
Ntp2674
Rp2675
(dp2676
g1495
g1362
sg1496
g1532
sg333
g1450
sbsS'exception.h'
p2677
g307
(g1491
g309
Ntp2678
Rp2679
(dp2680
g1495
g1503
sg1496
g1504
sg333
S'c:/marmalade/7.4/s3e/h/std/c++/exception.h'
p2681
sbsS'iwgeom.config.txt'
p2682
g307
(g1491
g309
Ntp2683
Rp2684
(dp2685
g1495
g1198
sg1496
g1553
sg333
g1196
sbsS'Scene.cpp'
p2686
g307
(g1491
g309
Ntp2687
Rp2688
(dp2689
g1495
g1107
sg1496
g1675
sg333
g1114
sbsS'iwgx.mkf'
p2690
g307
(g1491
g309
Ntp2691
Rp2692
(dp2693
g1495
g1339
sg1496
g1625
sg333
g1337
sbsS'gl.h'
p2694
g307
(g1491
g309
Ntp2695
Rp2696
(dp2697
g1495
g1503
sg1496
g2054
sg333
S'c:/marmalade/7.4/s3e/h/GLES/gl.h'
p2698
sbsS'zlib.h'
p2699
g307
(g1491
g309
Ntp2700
Rp2701
(dp2702
g1495
g1467
sg1496
g2163
sg333
g1468
sbsS'temp_defines_release.h'
p2703
g307
(g1491
g309
Ntp2704
Rp2705
(dp2706
g1495
(lp2707
sg1496
(lp2708
S"'generated files'"
p2709
asg333
S'c:/Users/Ahmed Saleh/Documents/spaceinvader/build_spaceinvader_vc12/temp_defines_release.h'
p2710
sbsS'iwgl.mkf'
p2711
g307
(g1491
g309
Ntp2712
Rp2713
(dp2714
g1495
g1152
sg1496
g1513
sg333
g1150
sbsS'IwColour.h'
p2715
g307
(g1491
g309
Ntp2716
Rp2717
(dp2718
g1495
g1298
sg1496
g1625
sg333
g1311
sbsS's3eLibrary.h'
p2719
g307
(g1491
g309
Ntp2720
Rp2721
(dp2722
g1495
g1503
sg1496
g1713
sg333
S'c:/marmalade/7.4/s3e/h/ext/s3eLibrary.h'
p2723
sbsS'types.h'
p2724
g307
(g1491
g309
Ntp2725
Rp2726
(dp2727
g1495
g1503
sg1496
g1639
sg333
S'c:/marmalade/7.4/s3e/h/std/sys/types.h'
p2728
sbsS'ifaddrs.h'
p2729
g307
(g1491
g309
Ntp2730
Rp2731
(dp2732
g1495
g1503
sg1496
g1525
sg333
S'c:/marmalade/7.4/s3e/h/std/ifaddrs.h'
p2733
sbsS'strstream'
p2734
g307
(g1491
g309
Ntp2735
Rp2736
(dp2737
g1495
g1503
sg1496
g1504
sg333
S'c:/marmalade/7.4/s3e/h/std/c++/strstream'
p2738
sbsS'IwTween.cpp'
p2739
g307
(g1491
g309
Ntp2740
Rp2741
(dp2742
g1495
g1477
sg1496
g1991
sg333
g1475
sbsS'exception'
p2743
g307
(g1491
g309
Ntp2744
Rp2745
(dp2746
g1495
g1503
sg1496
g1504
sg333
S'c:/marmalade/7.4/s3e/h/std/c++/exception'
p2747
sbsS'rlocks.h'
p2748
g307
(g1491
g309
Ntp2749
Rp2750
(dp2751
g1495
g1503
sg1496
g1504
sg333
S'c:/marmalade/7.4/s3e/h/std/c++/rlocks.h'
p2752
sbsS'ioctl.h'
p2753
g307
(g1491
g309
Ntp2754
Rp2755
(dp2756
g1495
g1503
sg1496
g1639
sg333
S'c:/marmalade/7.4/s3e/h/std/sys/ioctl.h'
p2757
sbsS'rope'
p2758
g307
(g1491
g309
Ntp2759
Rp2760
(dp2761
g1495
g1503
sg1496
g1504
sg333
S'c:/marmalade/7.4/s3e/h/std/c++/rope'
p2762
sbsS'jinclude.h'
p2763
g307
(g1491
g309
Ntp2764
Rp2765
(dp2766
g1495
g1063
sg1496
g1583
sg333
g1072
sbsS'IwEvent.h'
p2767
g307
(g1491
g309
Ntp2768
Rp2769
(dp2770
g1495
g1362
sg1496
g1532
sg333
g1433
sbsS'IwOptimiseSize.h'
p2771
g307
(g1491
g309
Ntp2772
Rp2773
(dp2774
g1495
g1362
sg1496
g1532
sg333
g1460
sbsS'iwgxfont_public.defines.txt'
p2775
g307
(g1491
g309
Ntp2776
Rp2777
(dp2778
g1495
g1176
sg1496
g1497
sg333
g1174
sbsS'iconv.h'
p2779
g307
(g1491
g309
Ntp2780
Rp2781
(dp2782
g1495
g1503
sg1496
g1525
sg333
S'c:/marmalade/7.4/s3e/h/std/iconv.h'
p2783
sbsS'Ship.cpp'
p2784
g307
(g1491
g309
Ntp2785
Rp2786
(dp2787
g1495
g1107
sg1496
g1675
sg333
g1105
sbsS'sendfile.h'
p2788
g307
(g1491
g309
Ntp2789
Rp2790
(dp2791
g1495
g1503
sg1496
g1639
sg333
S'c:/marmalade/7.4/s3e/h/std/sys/sendfile.h'
p2792
sbsS'IwGeomSphere.h'
p2793
g307
(g1491
g309
Ntp2794
Rp2795
(dp2796
g1495
g1198
sg1496
g1553
sg333
g1256
sbsS'tiniconv.mkf'
p2797
g307
(g1491
g309
Ntp2798
Rp2799
(dp2800
g1495
g1100
sg1496
g1948
sg333
g1098
sbsS'IwResManagerClass.h'
p2801
g307
(g1491
g309
Ntp2802
Rp2803
(dp2804
g1495
g1274
sg1496
g2039
sg333
g1292
sbsS'jdct.h'
p2805
g307
(g1491
g309
Ntp2806
Rp2807
(dp2808
g1495
g1063
sg1496
g1583
sg333
g1078
sbsS'cctype'
p2809
g307
(g1491
g309
Ntp2810
Rp2811
(dp2812
g1495
g1503
sg1496
g1504
sg333
S'c:/marmalade/7.4/s3e/h/std/c++/cctype'
p2813
sbsS's3eConfig.h'
p2814
g307
(g1491
g309
Ntp2815
Rp2816
(dp2817
g1495
g1503
sg1496
g1519
sg333
S'c:/marmalade/7.4/s3e/h/s3eConfig.h'
p2818
sbsS'IwHashString.h'
p2819
g307
(g1491
g309
Ntp2820
Rp2821
(dp2822
g1495
g1362
sg1496
g1532
sg333
g1385
sbsS'stat.h'
p2823
g307
(g1491
g309
Ntp2824
Rp2825
(dp2826
g1495
g1503
sg1496
g1639
sg333
S'c:/marmalade/7.4/s3e/h/std/sys/stat.h'
p2827
sbsS'byteswap.h'
p2828
g307
(g1491
g309
Ntp2829
Rp2830
(dp2831
g1495
g1503
sg1496
g1525
sg333
S'c:/marmalade/7.4/s3e/h/std/byteswap.h'
p2832
sbsS'iwresmanager.mkf'
p2833
g307
(g1491
g309
Ntp2834
Rp2835
(dp2836
g1495
g1285
sg1496
g2039
sg333
g1283
sbsS'IwUtilInitTerm.h'
p2837
g307
(g1491
g309
Ntp2838
Rp2839
(dp2840
g1495
g1362
sg1496
g1532
sg333
g1365
sbsS'pthread_1.h'
p2841
g307
(g1491
g309
Ntp2842
Rp2843
(dp2844
g1495
g1503
sg1496
g1504
sg333
S'c:/marmalade/7.4/s3e/h/std/c++/pthread.h'
p2845
sbsS'iw2d.mkf'
p2846
g307
(g1491
g309
Ntp2847
Rp2848
(dp2849
g1495
g1171
sg1496
g1588
sg333
g1169
sbsS'complex'
p2850
g307
(g1491
g309
Ntp2851
Rp2852
(dp2853
g1495
g1503
sg1496
g1504
sg333
S'c:/marmalade/7.4/s3e/h/std/c++/complex'
p2854
sbsS'algorithm'
p2855
g307
(g1491
g309
Ntp2856
Rp2857
(dp2858
g1495
g1503
sg1496
g1504
sg333
S'c:/marmalade/7.4/s3e/h/std/c++/algorithm'
p2859
sbsS's3e.icf'
p2860
g307
(g1491
g309
Ntp2861
Rp2862
(dp2863
g1495
g1503
sg1496
g1519
sg333
S'c:/marmalade/7.4/s3e/s3e.icf'
p2864
sbsS'IwVariableBitField.h'
p2865
g307
(g1491
g309
Ntp2866
Rp2867
(dp2868
g1495
g1362
sg1496
g1532
sg333
g1371
sbsS'sem.h'
p2869
g307
(g1491
g309
Ntp2870
Rp2871
(dp2872
g1495
g1503
sg1496
g1639
sg333
S'c:/marmalade/7.4/s3e/h/std/sys/sem.h'
p2873
sbsS'IwGxFontState.h'
p2874
g307
(g1491
g309
Ntp2875
Rp2876
(dp2877
g1495
g1176
sg1496
g1497
sg333
g1187
sbsS'stdio.h'
p2878
g307
(g1491
g309
Ntp2879
Rp2880
(dp2881
g1495
g1503
sg1496
g1525
sg333
S'c:/marmalade/7.4/s3e/h/std/stdio.h'
p2882
sbsS'jmemsys.h'
p2883
g307
(g1491
g309
Ntp2884
Rp2885
(dp2886
g1495
g1063
sg1496
g1583
sg333
g1064
sbsS'ios'
p2887
g307
(g1491
g309
Ntp2888
Rp2889
(dp2890
g1495
g1503
sg1496
g1504
sg333
S'c:/marmalade/7.4/s3e/h/std/c++/ios'
p2891
sbsS'IwTween.h'
p2892
g307
(g1491
g309
Ntp2893
Rp2894
(dp2895
g1495
g1477
sg1496
g1991
sg333
g1478
sbsS'IwGeomFVec4.h'
p2896
g307
(g1491
g309
Ntp2897
Rp2898
(dp2899
g1495
g1198
sg1496
g1553
sg333
g1216
sbsS'stack'
p2900
g307
(g1491
g309
Ntp2901
Rp2902
(dp2903
g1495
g1503
sg1496
g1504
sg333
S'c:/marmalade/7.4/s3e/h/std/c++/stack'
p2904
sbsS'new.h'
p2905
g307
(g1491
g309
Ntp2906
Rp2907
(dp2908
g1495
g1503
sg1496
g1504
sg333
S'c:/marmalade/7.4/s3e/h/std/c++/new.h'
p2909
sbsS's3eEMail.h'
p2910
g307
(g1491
g309
Ntp2911
Rp2912
(dp2913
g1495
g1503
sg1496
g1713
sg333
S'c:/marmalade/7.4/s3e/h/ext/s3eEMail.h'
p2914
sbsS's3eVideo.h'
p2915
g307
(g1491
g309
Ntp2916
Rp2917
(dp2918
g1495
g1503
sg1496
g1519
sg333
S'c:/marmalade/7.4/s3e/h/s3eVideo.h'
p2919
sbsS'pngconf.h'
p2920
g307
(g1491
g309
Ntp2921
Rp2922
(dp2923
g1495
g1052
sg1496
g2214
sg333
g1053
sbsS'pwd.h'
p2924
g307
(g1491
g309
Ntp2925
Rp2926
(dp2927
g1495
g1503
sg1496
g1525
sg333
S'c:/marmalade/7.4/s3e/h/std/pwd.h'
p2928
sbsS'gl3.h'
p2929
g307
(g1491
g309
Ntp2930
Rp2931
(dp2932
g1495
g1503
sg1496
g1805
sg333
S'c:/marmalade/7.4/s3e/h/GLES3/gl3.h'
p2933
sbsS'IwClip.h'
p2934
g307
(g1491
g309
Ntp2935
Rp2936
(dp2937
g1495
g1298
sg1496
g1625
sg333
g1315
sbsS'iwresmanager.config.txt'
p2938
g307
(g1491
g309
Ntp2939
Rp2940
(dp2941
g1495
g1274
sg1496
g2039
sg333
g1290
sbsS'IwGxShaderTechnique.h'
p2942
g307
(g1491
g309
Ntp2943
Rp2944
(dp2945
g1495
g1298
sg1496
g1625
sg333
g1342
sbsS'IwCore.h'
p2946
g307
(g1491
g309
Ntp2947
Rp2948
(dp2949
g1495
g1362
sg1496
g1532
sg333
g1379
sbsS'cfloat'
p2950
g307
(g1491
g309
Ntp2951
Rp2952
(dp2953
g1495
g1503
sg1496
g1504
sg333
S'c:/marmalade/7.4/s3e/h/std/c++/cfloat'
p2954
sbsS'IwGeomMat2D.h'
p2955
g307
(g1491
g309
Ntp2956
Rp2957
(dp2958
g1495
g1198
sg1496
g1553
sg333
g1254
sbsS'IwAllocator.h'
p2959
g307
(g1491
g309
Ntp2960
Rp2961
(dp2962
g1495
g1362
sg1496
g1532
sg333
g1399
sbsS'IwPath.h'
p2963
g307
(g1491
g309
Ntp2964
Rp2965
(dp2966
g1495
g1362
sg1496
g1532
sg333
g1454
sbsS'iwgxfont.mkf'
p2967
g307
(g1491
g309
Ntp2968
Rp2969
(dp2970
g1495
g1193
sg1496
g1497
sg333
g1191
sbsS'IwTexture.h'
p2971
g307
(g1491
g309
Ntp2972
Rp2973
(dp2974
g1495
g1298
sg1496
g1625
sg333
g1307
sbsS'IwGeomVec.h.tpl'
p2975
g307
(g1491
g309
Ntp2976
Rp2977
(dp2978
g1495
g1198
sg1496
g1553
sg333
g1206
sbsS's3eAccelerometer.h'
p2979
g307
(g1491
g309
Ntp2980
Rp2981
(dp2982
g1495
g1503
sg1496
g1519
sg333
S'c:/marmalade/7.4/s3e/h/s3eAccelerometer.h'
p2983
sbsS'setjmp.h'
p2984
g307
(g1491
g309
Ntp2985
Rp2986
(dp2987
g1495
g1503
sg1496
g1525
sg333
S'c:/marmalade/7.4/s3e/h/std/setjmp.h'
p2988
sbsS'IwFile.h'
p2989
g307
(g1491
g309
Ntp2990
Rp2991
(dp2992
g1495
g1362
sg1496
g1532
sg333
g1405
sbsS'IwTextParseable.h'
p2993
g307
(g1491
g309
Ntp2994
Rp2995
(dp2996
g1495
g1362
sg1496
g1532
sg333
g1403
sbsS'istream.h'
p2997
g307
(g1491
g309
Ntp2998
Rp2999
(dp3000
g1495
g1503
sg1496
g1504
sg333
S'c:/marmalade/7.4/s3e/h/std/c++/istream.h'
p3001
sbsS'stdint.h'
p3002
g307
(g1491
g309
Ntp3003
Rp3004
(dp3005
g1495
g1503
sg1496
g1525
sg333
S'c:/marmalade/7.4/s3e/h/std/stdint.h'
p3006
sbsS'spaceinvader.h'
p3007
g307
(g1491
g309
Ntp3008
Rp3009
(dp3010
g1495
g1107
sg1496
g1675
sg333
g1110
sbsS'semaphore.h'
p3011
g307
(g1491
g309
Ntp3012
Rp3013
(dp3014
g1495
g1503
sg1496
g1525
sg333
S'c:/marmalade/7.4/s3e/h/std/semaphore.h'
p3015
sbsS'ctime'
p3016
g307
(g1491
g309
Ntp3017
Rp3018
(dp3019
g1495
g1503
sg1496
g1504
sg333
S'c:/marmalade/7.4/s3e/h/std/c++/ctime'
p3020
sbsS'sstream'
p3021
g307
(g1491
g309
Ntp3022
Rp3023
(dp3024
g1495
g1503
sg1496
g1504
sg333
S'c:/marmalade/7.4/s3e/h/std/c++/sstream'
p3025
sbsS'IwGeomFBBox.h'
p3026
g307
(g1491
g309
Ntp3027
Rp3028
(dp3029
g1495
g1198
sg1496
g1553
sg333
g1220
sbsS'IwDebugPrim.h'
p3030
g307
(g1491
g309
Ntp3031
Rp3032
(dp3033
g1495
g1298
sg1496
g1625
sg333
g1296
sbsS'IwGxFontContainer.h'
p3034
g307
(g1491
g309
Ntp3035
Rp3036
(dp3037
g1495
g1176
sg1496
g1497
sg333
g1189
sbsS'IwGeomSVec3.h'
p3038
g307
(g1491
g309
Ntp3039
Rp3040
(dp3041
g1495
g1198
sg1496
g1553
sg333
g1232
sbsS'iw2dscenegraphcore.mkf'
p3042
g307
(g1491
g309
Ntp3043
Rp3044
(dp3045
g1495
g1352
sg1496
g2513
sg333
g1350
sbsS's3eExt.h'
p3046
g307
(g1491
g309
Ntp3047
Rp3048
(dp3049
g1495
g1503
sg1496
g1519
sg333
S'c:/marmalade/7.4/s3e/h/s3eExt.h'
p3050
sbsS'IwGeomFVec3.h'
p3051
g307
(g1491
g309
Ntp3052
Rp3053
(dp3054
g1495
g1198
sg1496
g1553
sg333
g1258
sbsS'streambuf'
p3055
g307
(g1491
g309
Ntp3056
Rp3057
(dp3058
g1495
g1503
sg1496
g1504
sg333
S'c:/marmalade/7.4/s3e/h/std/c++/streambuf'
p3059
sbsS's3eMetrics.h'
p3060
g307
(g1491
g309
Ntp3061
Rp3062
(dp3063
g1495
g1503
sg1496
g1713
sg333
S'c:/marmalade/7.4/s3e/h/ext/s3eMetrics.h'
p3064
sbsS'IwGxFont.h'
p3065
g307
(g1491
g309
Ntp3066
Rp3067
(dp3068
g1495
g1176
sg1496
g1497
sg333
g1181
sbsS's3eSecureStorage.h'
p3069
g307
(g1491
g309
Ntp3070
Rp3071
(dp3072
g1495
g1503
sg1496
g1519
sg333
S'c:/marmalade/7.4/s3e/h/s3eSecureStorage.h'
p3073
sbsS'string.h'
p3074
g307
(g1491
g309
Ntp3075
Rp3076
(dp3077
g1495
g1503
sg1496
g1525
sg333
S'c:/marmalade/7.4/s3e/h/std/string.h'
p3078
sbsS'IwResource.h'
p3079
g307
(g1491
g309
Ntp3080
Rp3081
(dp3082
g1495
g1362
sg1496
g1532
sg333
g1377
sbsS'IwGeomSVec2.h'
p3083
g307
(g1491
g309
Ntp3084
Rp3085
(dp3086
g1495
g1198
sg1496
g1553
sg333
g1252
sbsS'libjpeg.mkf'
p3087
g307
(g1491
g309
Ntp3088
Rp3089
(dp3090
g1495
g1092
sg1496
(lp3091
g1058
asg333
g1090
sbsS'IwGxDebug.h'
p3092
g307
(g1491
g309
Ntp3093
Rp3094
(dp3095
g1495
g1298
sg1496
g1625
sg333
g1321
sbsS'pthread_types.h'
p3096
g307
(g1491
g309
Ntp3097
Rp3098
(dp3099
g1495
g1503
sg1496
g1525
sg333
S'c:/marmalade/7.4/s3e/h/std/pthread_types.h'
p3100
sbsS'iomanip.h'
p3101
g307
(g1491
g309
Ntp3102
Rp3103
(dp3104
g1495
g1503
sg1496
g1504
sg333
S'c:/marmalade/7.4/s3e/h/std/c++/iomanip.h'
p3105
sbsS'IwKeymap.h'
p3106
g307
(g1491
g309
Ntp3107
Rp3108
(dp3109
g1495
g1362
sg1496
g1532
sg333
g1441
sbsS'IwDebug.h'
p3110
g307
(g1491
g309
Ntp3111
Rp3112
(dp3113
g1495
g1362
sg1496
g1532
sg333
g1369
sbsS's3eIOSBackgroundAudio.h'
p3114
g307
(g1491
g309
Ntp3115
Rp3116
(dp3117
g1495
g1503
sg1496
g1713
sg333
S'c:/marmalade/7.4/s3e/h/ext/s3eIOSBackgroundAudio.h'
p3118
sbsS'IwGeomMenu.h'
p3119
g307
(g1491
g309
Ntp3120
Rp3121
(dp3122
g1495
g1198
sg1496
g1553
sg333
g1212
sbsS'IwDivTable.h'
p3123
g307
(g1491
g309
Ntp3124
Rp3125
(dp3126
g1495
g1362
sg1496
g1532
sg333
g1458
sbsS'ctype.h'
p3127
g307
(g1491
g309
Ntp3128
Rp3129
(dp3130
g1495
g1503
sg1496
g1525
sg333
S'c:/marmalade/7.4/s3e/h/std/ctype.h'
p3131
sbsS'IwGeomMat.h'
p3132
g307
(g1491
g309
Ntp3133
Rp3134
(dp3135
g1495
g1198
sg1496
g1553
sg333
g1234
sbsS'IwResGroup.h'
p3136
g307
(g1491
g309
Ntp3137
Rp3138
(dp3139
g1495
g1274
sg1496
g2039
sg333
g1272
sbsS'signal_1.h'
p3140
g307
(g1491
g309
Ntp3141
Rp3142
(dp3143
g1495
g1503
sg1496
g1639
sg333
S'c:/marmalade/7.4/s3e/h/std/sys/signal.h'
p3144
sbsS'functional'
p3145
g307
(g1491
g309
Ntp3146
Rp3147
(dp3148
g1495
g1503
sg1496
g1504
sg333
S'c:/marmalade/7.4/s3e/h/std/c++/functional'
p3149
sbsS'shm.h'
p3150
g307
(g1491
g309
Ntp3151
Rp3152
(dp3153
g1495
g1503
sg1496
g1639
sg333
S'c:/marmalade/7.4/s3e/h/std/sys/shm.h'
p3154
sbsS'jpegint.h'
p3155
g307
(g1491
g309
Ntp3156
Rp3157
(dp3158
g1495
g1063
sg1496
g1583
sg333
g1086
sbsS'prctl.h'
p3159
g307
(g1491
g309
Ntp3160
Rp3161
(dp3162
g1495
g1503
sg1496
g1639
sg333
S'c:/marmalade/7.4/s3e/h/std/sys/prctl.h'
p3163
sbsS'un.h'
p3164
g307
(g1491
g309
Ntp3165
Rp3166
(dp3167
g1495
g1503
sg1496
g1639
sg333
S'c:/marmalade/7.4/s3e/h/std/sys/un.h'
p3168
sbsS'temp_defines_debug.h'
p3169
g307
(g1491
g309
Ntp3170
Rp3171
(dp3172
g1495
(lp3173
sg1496
(lp3174
g2709
asg333
S'c:/Users/Ahmed Saleh/Documents/spaceinvader/build_spaceinvader_vc12/temp_defines_debug.h'
p3175
sbsS'utility'
p3176
g307
(g1491
g309
Ntp3177
Rp3178
(dp3179
g1495
g1503
sg1496
g1504
sg333
S'c:/marmalade/7.4/s3e/h/std/c++/utility'
p3180
sbsS'IwGeomLegacy.h'
p3181
g307
(g1491
g309
Ntp3182
Rp3183
(dp3184
g1495
g1198
sg1496
g1553
sg333
g1240
sbsS'IwTPage.h'
p3185
g307
(g1491
g309
Ntp3186
Rp3187
(dp3188
g1495
g1298
sg1496
g1625
sg333
g1317
sbsS'IwResSerialise.h'
p3189
g307
(g1491
g309
Ntp3190
Rp3191
(dp3192
g1495
g1274
sg1496
g2039
sg333
g1279
sbsS's3eCrypto.h'
p3193
g307
(g1491
g309
Ntp3194
Rp3195
(dp3196
g1495
g1503
sg1496
g1519
sg333
S'c:/marmalade/7.4/s3e/h/s3eCrypto.h'
p3197
sbsS's3eKeyboard.h'
p3198
g307
(g1491
g309
Ntp3199
Rp3200
(dp3201
g1495
g1503
sg1496
g1519
sg333
S'c:/marmalade/7.4/s3e/h/s3eKeyboard.h'
p3202
sbsS'fcntl.h'
p3203
g307
(g1491
g309
Ntp3204
Rp3205
(dp3206
g1495
g1503
sg1496
g1525
sg333
S'c:/marmalade/7.4/s3e/h/std/fcntl.h'
p3207
sbsS'Iw2DSceneGraphCore.h'
p3208
g307
(g1491
g309
Ntp3209
Rp3210
(dp3211
g1495
g1355
sg1496
g2513
sg333
g1356
sbsS'memory.h'
p3212
g307
(g1491
g309
Ntp3213
Rp3214
(dp3215
g1495
g1503
sg1496
g1525
sg333
S'c:/marmalade/7.4/s3e/h/std/memory.h'
p3216
sbsS'pthread.h'
p3217
g307
(g1491
g309
Ntp3218
Rp3219
(dp3220
g1495
g1503
sg1496
g1525
sg333
S'c:/marmalade/7.4/s3e/h/std/pthread.h'
p3221
sbsS'IwGeomIntersect.h'
p3222
g307
(g1491
g309
Ntp3223
Rp3224
(dp3225
g1495
g1198
sg1496
g1553
sg333
g1250
sbsS'IwTextParserITX.h'
p3226
g307
(g1491
g309
Ntp3227
Rp3228
(dp3229
g1495
g1362
sg1496
g1532
sg333
g1381
sbsS'egl_1.h'
p3230
g307
(g1491
g309
Ntp3231
Rp3232
(dp3233
g1495
g1503
sg1496
g2054
sg333
S'c:/marmalade/7.4/s3e/h/GLES/egl.h'
p3234
sbsS'Iw2DSceneGraph.cpp'
p3235
g307
(g1491
g309
Ntp3236
Rp3237
(dp3238
g1495
g1140
sg1496
g1753
sg333
g1141
sbsS'ostream.h'
p3239
g307
(g1491
g309
Ntp3240
Rp3241
(dp3242
g1495
g1503
sg1496
g1504
sg333
S'c:/marmalade/7.4/s3e/h/std/c++/ostream.h'
p3243
sbsS'stl_user_config.h'
p3244
g307
(g1491
g309
Ntp3245
Rp3246
(dp3247
g1495
g1503
sg1496
g1504
sg333
S'c:/marmalade/7.4/s3e/h/std/c++/stl_user_config.h'
p3248
sbsS'IwProfileMenu.h'
p3249
g307
(g1491
g309
Ntp3250
Rp3251
(dp3252
g1495
g1362
sg1496
g1532
sg333
g1387
sbsS'MarmaladeVersion.h'
p3253
g307
(g1491
g309
Ntp3254
Rp3255
(dp3256
g1495
g1503
sg1496
g1519
sg333
S'c:/marmalade/7.4/s3e/h/MarmaladeVersion.h'
p3257
sbsS'gl3platform.h'
p3258
g307
(g1491
g309
Ntp3259
Rp3260
(dp3261
g1495
g1503
sg1496
g1805
sg333
S'c:/marmalade/7.4/s3e/h/GLES3/gl3platform.h'
p3262
sbsS'ios.h'
p3263
g307
(g1491
g309
Ntp3264
Rp3265
(dp3266
g1495
g1503
sg1496
g1504
sg333
S'c:/marmalade/7.4/s3e/h/std/c++/ios.h'
p3267
sbsS'IwImageHelper.h'
p3268
g307
(g1491
g309
Ntp3269
Rp3270
(dp3271
g1495
g1362
sg1496
g1532
sg333
g1419
sbsS'hash_set'
p3272
g307
(g1491
g309
Ntp3273
Rp3274
(dp3275
g1495
g1503
sg1496
g1504
sg333
S'c:/marmalade/7.4/s3e/h/std/c++/hash_set'
p3276
sbsS'IwGeomFQuat.h'
p3277
g307
(g1491
g309
Ntp3278
Rp3279
(dp3280
g1495
g1198
sg1496
g1553
sg333
g1210
sbsS'jmorecfg.h'
p3281
g307
(g1491
g309
Ntp3282
Rp3283
(dp3284
g1495
g1063
sg1496
g1583
sg333
g1088
sbsS'eglplatform.h'
p3285
g307
(g1491
g309
Ntp3286
Rp3287
(dp3288
g1495
g1503
sg1496
g1837
sg333
S'c:/marmalade/7.4/s3e/h/EGL/eglplatform.h'
p3289
sbsS'cmath'
p3290
g307
(g1491
g309
Ntp3291
Rp3292
(dp3293
g1495
g1503
sg1496
g1504
sg333
S'c:/marmalade/7.4/s3e/h/std/c++/cmath'
p3294
sbsS'math_gcc.h'
p3295
g307
(g1491
g309
Ntp3296
Rp3297
(dp3298
g1495
g1503
sg1496
g1525
sg333
S'c:/marmalade/7.4/s3e/h/std/math_gcc.h'
p3299
sbsS's3eMemory.h'
p3300
g307
(g1491
g309
Ntp3301
Rp3302
(dp3303
g1495
g1503
sg1496
g1519
sg333
S'c:/marmalade/7.4/s3e/h/s3eMemory.h'
p3304
sbsS'strings.h'
p3305
g307
(g1491
g309
Ntp3306
Rp3307
(dp3308
g1495
g1503
sg1496
g1525
sg333
S'c:/marmalade/7.4/s3e/h/std/strings.h'
p3309
sbsS's3eFile.h'
p3310
g307
(g1491
g309
Ntp3311
Rp3312
(dp3313
g1495
g1503
sg1496
g1519
sg333
S'c:/marmalade/7.4/s3e/h/s3eFile.h'
p3314
sbsS'IwGxTypes.h'
p3315
g307
(g1491
g309
Ntp3316
Rp3317
(dp3318
g1495
g1298
sg1496
g1625
sg333
g1344
sbsS'cerrno'
p3319
g307
(g1491
g309
Ntp3320
Rp3321
(dp3322
g1495
g1503
sg1496
g1504
sg333
S'c:/marmalade/7.4/s3e/h/std/c++/cerrno'
p3323
sbsS'resource.h'
p3324
g307
(g1491
g309
Ntp3325
Rp3326
(dp3327
g1495
g1503
sg1496
g1639
sg333
S'c:/marmalade/7.4/s3e/h/std/sys/resource.h'
p3328
sbsS'clocale'
p3329
g307
(g1491
g309
Ntp3330
Rp3331
(dp3332
g1495
g1503
sg1496
g1504
sg333
S'c:/marmalade/7.4/s3e/h/std/c++/clocale'
p3333
sbsS'pvrtextool.mkf'
p3334
g307
(g1491
g309
Ntp3335
Rp3336
(dp3337
g1495
g1131
sg1496
g2090
sg333
g1129
sbsS'csetjmp'
p3338
g307
(g1491
g309
Ntp3339
Rp3340
(dp3341
g1495
g1503
sg1496
g1504
sg333
S'c:/marmalade/7.4/s3e/h/std/c++/csetjmp'
p3342
sbsS'netdb.h'
p3343
g307
(g1491
g309
Ntp3344
Rp3345
(dp3346
g1495
g1503
sg1496
g1525
sg333
S'c:/marmalade/7.4/s3e/h/std/netdb.h'
p3347
sbsS's3eAndroidJNI.h'
p3348
g307
(g1491
g309
Ntp3349
Rp3350
(dp3351
g1495
g1503
sg1496
g1713
sg333
S'c:/marmalade/7.4/s3e/h/ext/s3eAndroidJNI.h'
p3352
sbsS'stdexcept'
p3353
g307
(g1491
g309
Ntp3354
Rp3355
(dp3356
g1495
g1503
sg1496
g1504
sg333
S'c:/marmalade/7.4/s3e/h/std/c++/stdexcept'
p3357
sbsS'math.h'
p3358
g307
(g1491
g309
Ntp3359
Rp3360
(dp3361
g1495
g1503
sg1496
g1525
sg333
S'c:/marmalade/7.4/s3e/h/std/math.h'
p3362
sbsS'stdbool.h'
p3363
g307
(g1491
g309
Ntp3364
Rp3365
(dp3366
g1495
g1503
sg1496
g1525
sg333
S'c:/marmalade/7.4/s3e/h/std/stdbool.h'
p3367
sbsS'uio.h'
p3368
g307
(g1491
g309
Ntp3369
Rp3370
(dp3371
g1495
g1503
sg1496
g1639
sg333
S'c:/marmalade/7.4/s3e/h/std/sys/uio.h'
p3372
sbsS'IwUncopyable.h'
p3373
g307
(g1491
g309
Ntp3374
Rp3375
(dp3376
g1495
g1362
sg1496
g1532
sg333
g1411
sbssS'juice_build_type'
p3377
g4
sS'tests'
p3378
(lp3379
sS'project_name'
p3380
g315
sS'root_file'
p3381
g122
sS'current_root'
p3382
S'c:/Users/Ahmed Saleh/Documents/spaceinvader'
p3383
sS'dependencies'
p3384
(lp3385
sS'include_paths'
p3386
(lp3387
S'c:/marmalade/7.4/modules/iwutil/h'
p3388
aS'c:/marmalade/7.4/modules/third_party/libjpeg/h'
p3389
aS'c:/marmalade/7.4/modules/third_party/zlib/h'
p3390
aS'c:/marmalade/7.4/modules/third_party/libpng/h'
p3391
aS'c:/marmalade/7.4/modules/iw2dscenegraphcore/h'
p3392
aS'c:/marmalade/7.4/modules/iw2dscenegraph/h'
p3393
aS'c:/marmalade/7.4/modules/iw2d/h'
p3394
aS'c:/marmalade/7.4/modules/iwgx/h'
p3395
aS'c:/marmalade/7.4/modules/iwgl/h'
p3396
aS'c:/marmalade/7.4/modules/iwgeom/h'
p3397
aS'c:/marmalade/7.4/modules/iwresmanager/h'
p3398
aS'c:/marmalade/7.4/extensions/pvrtextool/h'
p3399
aS'c:/marmalade/7.4/modules/iwgxfont/h'
p3400
aS'c:/marmalade/7.4/modules/third_party/tiniconv/source'
p3401
aS'c:/marmalade/7.4/modules/iwtween/h'
p3402
aS'c:/marmalade/7.4/s3e/h'
p3403
aS'c:/marmalade/7.4/s3e/h/ext'
p3404
aS'c:/marmalade/7.4/s3e/h/std'
p3405
aS'c:/marmalade/7.4/s3e/h/std/c++'
p3406
aS'c:/marmalade/7.4/s3e/h/ext_legacy'
p3407
aS'c:/marmalade/7.4/s3e/h/legacy'
p3408
asS'weak_frameworks'
p3409
(lp3410
sS'extprojects'
p3411
(dp3412
sg573
(dp3413
g567
(lp3414
(g80
S'.'
p3415
I0
tp3416
assS'macro_types'
p3417
(dp3418
g506
I1
sg507
I0
sg508
I0
sg509
I0
sg510
I0
sg511
I0
sg512
I0
sg513
I0
sg514
I0
sg516
I0
sg517
I0
sg518
I0
sg519
I0
sg520
I0
sg522
I0
sg524
I0
sg525
I0
sg526
I0
sg527
I0
sg528
I0
sg529
I0
sg530
I1
sg531
I0
sg532
I0
sg533
I0
sg534
I0
sg535
I01
sg536
I1
sg537
I0
sg538
I0
sg539
I0
sg540
I0
sg541
I0
sg543
I0
sg544
I0
ssS'commands'
p3419
(lp3420
sg575
(g1039
S'VC12'
p3421
S'X86ARM'
p3422
tp3423
sS'build_libs'
p3424
(dp3425
sg577
g0
sS'frameworks'
p3426
(lp3427
sS'environ'
p3428
(dp3429
sS'target_name_debug'
p3430
g315
sS'builders'
p3431
(dp3432
g567
(dp3433
S'.S'
p3434
(dp3435
S'rvct'
p3436
(lp3437
S'.obj'
p3438
aS'echo ARM Assembling(RVCT) ${SOURCE}...'
p3439
aS'c:/marmalade/7.4/s3e\\rvct\\bin\\armasm -o ${TARGET} ${SOURCE}'
p3440
asg429
(lp3441
g3438
aS'echo ARM Assembling(GCC) ${SOURCE}...'
p3442
aS'c:/marmalade/7.4/s3e\\gcc\\bin\\arm-none-eabi-gcc -c -o ${TARGET} ${SOURCE}'
p3443
asS'ppu'
p3444
(lp3445
S'.a'
p3446
aS'echo PPU Assembling(SNC) ${SOURCE}...'
p3447
aS'c:/marmalade/7.4/s3e\\rvct\\bin\\armasm -o ${TARGET} ${SOURCE}'
p3448
assS'.s'
p3449
g3435
sS'.vp'
p3450
(lp3451
NaS'"C:/Marmalade/7.4/s3e/python/python.exe" "c:/marmalade/7.4/modules/iwgx/tools/compile_shaders.py" ${SOURCE}'
p3452
asssS'extproject_names'
p3453
(lp3454
sbtp3455
.